; ModuleID = 'Z:/ECC/Desktop/Winter2023/ELEN226/Assignment3/mmul/solution3/.autopilot/db/a.g.ld.5.gdce.bc'
source_filename = "llvm-link"
target datalayout = "e-m:e-i64:64-i128:128-i256:256-i512:512-i1024:1024-i2048:2048-i4096:4096-n8:16:32:64-S128-v16:16-v24:32-v32:32-v48:64-v96:128-v192:256-v256:256-v512:512-v1024:1024"
target triple = "fpga64-xilinx-none"

%"struct.ap_fixed<16, 16, AP_TRN, AP_WRAP, 0>" = type { %"struct.ap_fixed_base<16, 16, true, AP_TRN, AP_WRAP, 0>" }
%"struct.ap_fixed_base<16, 16, true, AP_TRN, AP_WRAP, 0>" = type { %"struct.ssdm_int<16, true>" }
%"struct.ssdm_int<16, true>" = type { i16 }

; Function Attrs: inaccessiblememonly nounwind
declare void @llvm.sideeffect() #0

; Function Attrs: inaccessiblemem_or_argmemonly noinline
define void @apatb_mmul_ir([4 x %"struct.ap_fixed<16, 16, AP_TRN, AP_WRAP, 0>"]* noalias nocapture nonnull readonly "fpga.decayed.dim.hint"="3" %a, [6 x %"struct.ap_fixed<16, 16, AP_TRN, AP_WRAP, 0>"]* noalias nocapture nonnull readonly "fpga.decayed.dim.hint"="4" %b, [6 x %"struct.ap_fixed<16, 16, AP_TRN, AP_WRAP, 0>"]* noalias nocapture nonnull "fpga.decayed.dim.hint"="3" %c) local_unnamed_addr #1 {
entry:
  %a_copy_0 = alloca [4 x i16], align 512
  %a_copy_1 = alloca [4 x i16], align 512
  %a_copy_2 = alloca [4 x i16], align 512
  %a_copy_3 = alloca [4 x i16], align 512
  %b_copy_0 = alloca [6 x i16], align 512
  %b_copy_1 = alloca [6 x i16], align 512
  %b_copy_2 = alloca [6 x i16], align 512
  %b_copy_3 = alloca [6 x i16], align 512
  %c_copy = alloca [3 x [6 x i16]], align 512
  %0 = bitcast [4 x %"struct.ap_fixed<16, 16, AP_TRN, AP_WRAP, 0>"]* %a to [3 x [4 x %"struct.ap_fixed<16, 16, AP_TRN, AP_WRAP, 0>"]]*
  %1 = bitcast [6 x %"struct.ap_fixed<16, 16, AP_TRN, AP_WRAP, 0>"]* %b to [4 x [6 x %"struct.ap_fixed<16, 16, AP_TRN, AP_WRAP, 0>"]]*
  %2 = bitcast [6 x %"struct.ap_fixed<16, 16, AP_TRN, AP_WRAP, 0>"]* %c to [3 x [6 x %"struct.ap_fixed<16, 16, AP_TRN, AP_WRAP, 0>"]]*
  call void @copy_in([3 x [4 x %"struct.ap_fixed<16, 16, AP_TRN, AP_WRAP, 0>"]]* nonnull %0, [4 x i16]* nonnull align 512 %a_copy_0, [4 x i16]* nonnull align 512 %a_copy_1, [4 x i16]* nonnull align 512 %a_copy_2, [4 x [6 x %"struct.ap_fixed<16, 16, AP_TRN, AP_WRAP, 0>"]]* nonnull %1, [6 x i16]* nonnull align 512 %b_copy_0, [6 x i16]* nonnull align 512 %b_copy_1, [6 x i16]* nonnull align 512 %b_copy_2, [6 x i16]* nonnull align 512 %b_copy_3, [3 x [6 x %"struct.ap_fixed<16, 16, AP_TRN, AP_WRAP, 0>"]]* nonnull %2, [3 x [6 x i16]]* nonnull align 512 %c_copy)
  %3 = getelementptr [3 x [6 x i16]], [3 x [6 x i16]]* %c_copy, i32 0, i32 0
  call void @llvm.sideeffect() #0 [ "xlx_array_partition"([4 x i16]* %a_copy_0, i32 0, i32 1, i32 0, i1 false) ], !dbg !5
  call void @llvm.sideeffect() #0 [ "xlx_array_partition"([4 x i16]* %a_copy_1, i32 0, i32 1, i32 0, i1 false) ], !dbg !5
  call void @llvm.sideeffect() #0 [ "xlx_array_partition"([4 x i16]* %a_copy_2, i32 0, i32 1, i32 0, i1 false) ], !dbg !5
  call void @llvm.sideeffect() #0 [ "xlx_array_partition"([4 x i16]* %a_copy_3, i32 0, i32 1, i32 0, i1 false) ], !dbg !5
  call void @llvm.sideeffect() #0 [ "xlx_array_partition"([6 x i16]* %b_copy_0, i32 0, i32 1, i32 0, i1 false) ], !dbg !5540
  call void @llvm.sideeffect() #0 [ "xlx_array_partition"([6 x i16]* %b_copy_1, i32 0, i32 1, i32 0, i1 false) ], !dbg !5540
  call void @llvm.sideeffect() #0 [ "xlx_array_partition"([6 x i16]* %b_copy_2, i32 0, i32 1, i32 0, i1 false) ], !dbg !5540
  call void @llvm.sideeffect() #0 [ "xlx_array_partition"([6 x i16]* %b_copy_3, i32 0, i32 1, i32 0, i1 false) ], !dbg !5540
  call void @apatb_mmul_hw([4 x i16]* %a_copy_0, [4 x i16]* %a_copy_1, [4 x i16]* %a_copy_2, [4 x i16]* %a_copy_3, [6 x i16]* %b_copy_0, [6 x i16]* %b_copy_1, [6 x i16]* %b_copy_2, [6 x i16]* %b_copy_3, [6 x i16]* %3)
  call void @copy_back([3 x [4 x %"struct.ap_fixed<16, 16, AP_TRN, AP_WRAP, 0>"]]* %0, [4 x i16]* %a_copy_0, [4 x i16]* %a_copy_1, [4 x i16]* %a_copy_2, [4 x [6 x %"struct.ap_fixed<16, 16, AP_TRN, AP_WRAP, 0>"]]* %1, [6 x i16]* %b_copy_0, [6 x i16]* %b_copy_1, [6 x i16]* %b_copy_2, [6 x i16]* %b_copy_3, [3 x [6 x %"struct.ap_fixed<16, 16, AP_TRN, AP_WRAP, 0>"]]* %2, [3 x [6 x i16]]* %c_copy)
  ret void
}

; Function Attrs: argmemonly noinline norecurse
define internal fastcc void @"onebyonecpy_hls.p0a3a6struct.ap_fixed<16, 16, AP_TRN, AP_WRAP, 0>"([3 x [6 x i16]]* noalias align 512, [3 x [6 x %"struct.ap_fixed<16, 16, AP_TRN, AP_WRAP, 0>"]]* noalias readonly) unnamed_addr #2 {
entry:
  %2 = icmp eq [3 x [6 x i16]]* %0, null
  %3 = icmp eq [3 x [6 x %"struct.ap_fixed<16, 16, AP_TRN, AP_WRAP, 0>"]]* %1, null
  %4 = or i1 %2, %3
  br i1 %4, label %ret, label %copy

copy:                                             ; preds = %entry
  br label %for.loop

for.loop:                                         ; preds = %for.loop.split, %copy
  %for.loop.idx16 = phi i64 [ 0, %copy ], [ %for.loop.idx.next, %for.loop.split ]
  br label %for.loop2

for.loop2:                                        ; preds = %for.loop2, %for.loop
  %for.loop.idx315 = phi i64 [ 0, %for.loop ], [ %for.loop.idx3.next, %for.loop2 ]
  %src.addr6.0.0.013 = getelementptr [3 x [6 x %"struct.ap_fixed<16, 16, AP_TRN, AP_WRAP, 0>"]], [3 x [6 x %"struct.ap_fixed<16, 16, AP_TRN, AP_WRAP, 0>"]]* %1, i64 0, i64 %for.loop.idx16, i64 %for.loop.idx315, i32 0, i32 0, i32 0
  %5 = getelementptr [3 x [6 x i16]], [3 x [6 x i16]]* %0, i64 0, i64 %for.loop.idx16, i64 %for.loop.idx315
  %6 = load i16, i16* %src.addr6.0.0.013, align 2
  store i16 %6, i16* %5, align 2
  %for.loop.idx3.next = add nuw nsw i64 %for.loop.idx315, 1
  %exitcond = icmp ne i64 %for.loop.idx3.next, 6
  br i1 %exitcond, label %for.loop2, label %for.loop.split

for.loop.split:                                   ; preds = %for.loop2
  %for.loop.idx.next = add nuw nsw i64 %for.loop.idx16, 1
  %exitcond17 = icmp ne i64 %for.loop.idx.next, 3
  br i1 %exitcond17, label %for.loop, label %ret

ret:                                              ; preds = %for.loop.split, %entry
  ret void
}

; Function Attrs: nounwind
declare void @llvm.assume(i1) #3

; Function Attrs: argmemonly noinline norecurse
define internal void @"onebyonecpy_hls.p0a3a4struct.ap_fixed<16, 16, AP_TRN, AP_WRAP, 0>.3.4"([4 x i16]* noalias align 512 "fpga.caller.interfaces"="layout_transformed" "orig.arg.no"="0" %_0, [4 x i16]* noalias align 512 "fpga.caller.interfaces"="layout_transformed" "orig.arg.no"="0" %_1, [4 x i16]* noalias align 512 "fpga.caller.interfaces"="layout_transformed" "orig.arg.no"="0" %_2, [3 x [4 x %"struct.ap_fixed<16, 16, AP_TRN, AP_WRAP, 0>"]]* noalias readonly "fpga.caller.interfaces"="layout_transformed" "orig.arg.no"="1") #2 {
entry:
  %1 = icmp eq [4 x i16]* %_0, null
  %2 = icmp eq [3 x [4 x %"struct.ap_fixed<16, 16, AP_TRN, AP_WRAP, 0>"]]* %0, null
  %3 = or i1 %1, %2
  br i1 %3, label %ret, label %copy

copy:                                             ; preds = %entry
  br label %for.loop

for.loop:                                         ; preds = %for.loop.split, %copy
  %for.loop.idx16 = phi i64 [ 0, %copy ], [ %for.loop.idx.next, %for.loop.split ]
  %4 = trunc i64 %for.loop.idx16 to i2
  %5 = icmp eq i2 %4, -2
  br label %for.loop2

for.loop2:                                        ; preds = %dst.addr5.0.0.014.exit, %for.loop
  %for.loop.idx315 = phi i64 [ 0, %for.loop ], [ %for.loop.idx3.next, %dst.addr5.0.0.014.exit ]
  %src.addr6.0.0.013 = getelementptr [3 x [4 x %"struct.ap_fixed<16, 16, AP_TRN, AP_WRAP, 0>"]], [3 x [4 x %"struct.ap_fixed<16, 16, AP_TRN, AP_WRAP, 0>"]]* %0, i64 0, i64 %for.loop.idx16, i64 %for.loop.idx315, i32 0, i32 0, i32 0
  %6 = getelementptr [4 x i16], [4 x i16]* %_0, i64 0, i64 %for.loop.idx315
  %7 = getelementptr [4 x i16], [4 x i16]* %_1, i64 0, i64 %for.loop.idx315
  %8 = getelementptr [4 x i16], [4 x i16]* %_2, i64 0, i64 %for.loop.idx315
  %9 = load i16, i16* %src.addr6.0.0.013, align 2
  switch i2 %4, label %dst.addr5.0.0.014.case.2 [
    i2 0, label %dst.addr5.0.0.014.case.0
    i2 1, label %dst.addr5.0.0.014.case.1
  ]

dst.addr5.0.0.014.case.0:                         ; preds = %for.loop2
  store i16 %9, i16* %6, align 2
  br label %dst.addr5.0.0.014.exit

dst.addr5.0.0.014.case.1:                         ; preds = %for.loop2
  store i16 %9, i16* %7, align 2
  br label %dst.addr5.0.0.014.exit

dst.addr5.0.0.014.case.2:                         ; preds = %for.loop2
  call void @llvm.assume(i1 %5)
  store i16 %9, i16* %8, align 2
  br label %dst.addr5.0.0.014.exit

dst.addr5.0.0.014.exit:                           ; preds = %dst.addr5.0.0.014.case.2, %dst.addr5.0.0.014.case.1, %dst.addr5.0.0.014.case.0
  %for.loop.idx3.next = add nuw nsw i64 %for.loop.idx315, 1
  %exitcond = icmp ne i64 %for.loop.idx3.next, 4
  br i1 %exitcond, label %for.loop2, label %for.loop.split

for.loop.split:                                   ; preds = %dst.addr5.0.0.014.exit
  %for.loop.idx.next = add nuw nsw i64 %for.loop.idx16, 1
  %exitcond17 = icmp ne i64 %for.loop.idx.next, 3
  br i1 %exitcond17, label %for.loop, label %ret

ret:                                              ; preds = %for.loop.split, %entry
  ret void
}

; Function Attrs: argmemonly noinline norecurse
define internal void @"onebyonecpy_hls.p0a4a6struct.ap_fixed<16, 16, AP_TRN, AP_WRAP, 0>.5.6"([6 x i16]* noalias align 512 "fpga.caller.interfaces"="layout_transformed" "orig.arg.no"="0" %_0, [6 x i16]* noalias align 512 "fpga.caller.interfaces"="layout_transformed" "orig.arg.no"="0" %_1, [6 x i16]* noalias align 512 "fpga.caller.interfaces"="layout_transformed" "orig.arg.no"="0" %_2, [6 x i16]* noalias align 512 "fpga.caller.interfaces"="layout_transformed" "orig.arg.no"="0" %_3, [4 x [6 x %"struct.ap_fixed<16, 16, AP_TRN, AP_WRAP, 0>"]]* noalias readonly "fpga.caller.interfaces"="layout_transformed" "orig.arg.no"="1") #2 {
entry:
  %1 = icmp eq [6 x i16]* %_0, null
  %2 = icmp eq [4 x [6 x %"struct.ap_fixed<16, 16, AP_TRN, AP_WRAP, 0>"]]* %0, null
  %3 = or i1 %1, %2
  br i1 %3, label %ret, label %copy

copy:                                             ; preds = %entry
  br label %for.loop

for.loop:                                         ; preds = %for.loop.split, %copy
  %for.loop.idx16 = phi i64 [ 0, %copy ], [ %for.loop.idx.next, %for.loop.split ]
  %4 = trunc i64 %for.loop.idx16 to i2
  br label %for.loop2

for.loop2:                                        ; preds = %dst.addr5.0.0.014.exit, %for.loop
  %for.loop.idx315 = phi i64 [ 0, %for.loop ], [ %for.loop.idx3.next, %dst.addr5.0.0.014.exit ]
  %src.addr6.0.0.013 = getelementptr [4 x [6 x %"struct.ap_fixed<16, 16, AP_TRN, AP_WRAP, 0>"]], [4 x [6 x %"struct.ap_fixed<16, 16, AP_TRN, AP_WRAP, 0>"]]* %0, i64 0, i64 %for.loop.idx16, i64 %for.loop.idx315, i32 0, i32 0, i32 0
  %5 = getelementptr [6 x i16], [6 x i16]* %_0, i64 0, i64 %for.loop.idx315
  %6 = getelementptr [6 x i16], [6 x i16]* %_1, i64 0, i64 %for.loop.idx315
  %7 = getelementptr [6 x i16], [6 x i16]* %_2, i64 0, i64 %for.loop.idx315
  %8 = getelementptr [6 x i16], [6 x i16]* %_3, i64 0, i64 %for.loop.idx315
  %9 = load i16, i16* %src.addr6.0.0.013, align 2
  switch i2 %4, label %dst.addr5.0.0.014.case.3 [
    i2 0, label %dst.addr5.0.0.014.case.0
    i2 1, label %dst.addr5.0.0.014.case.1
    i2 -2, label %dst.addr5.0.0.014.case.2
  ]

dst.addr5.0.0.014.case.0:                         ; preds = %for.loop2
  store i16 %9, i16* %5, align 2
  br label %dst.addr5.0.0.014.exit

dst.addr5.0.0.014.case.1:                         ; preds = %for.loop2
  store i16 %9, i16* %6, align 2
  br label %dst.addr5.0.0.014.exit

dst.addr5.0.0.014.case.2:                         ; preds = %for.loop2
  store i16 %9, i16* %7, align 2
  br label %dst.addr5.0.0.014.exit

dst.addr5.0.0.014.case.3:                         ; preds = %for.loop2
  store i16 %9, i16* %8, align 2
  br label %dst.addr5.0.0.014.exit

dst.addr5.0.0.014.exit:                           ; preds = %dst.addr5.0.0.014.case.3, %dst.addr5.0.0.014.case.2, %dst.addr5.0.0.014.case.1, %dst.addr5.0.0.014.case.0
  %for.loop.idx3.next = add nuw nsw i64 %for.loop.idx315, 1
  %exitcond = icmp ne i64 %for.loop.idx3.next, 6
  br i1 %exitcond, label %for.loop2, label %for.loop.split

for.loop.split:                                   ; preds = %dst.addr5.0.0.014.exit
  %for.loop.idx.next = add nuw nsw i64 %for.loop.idx16, 1
  %exitcond17 = icmp ne i64 %for.loop.idx.next, 4
  br i1 %exitcond17, label %for.loop, label %ret

ret:                                              ; preds = %for.loop.split, %entry
  ret void
}

; Function Attrs: argmemonly noinline norecurse
define internal void @copy_in([3 x [4 x %"struct.ap_fixed<16, 16, AP_TRN, AP_WRAP, 0>"]]* noalias readonly "orig.arg.no"="0", [4 x i16]* noalias align 512 "fpga.caller.interfaces"="layout_transformed" "orig.arg.no"="1" %_0, [4 x i16]* noalias align 512 "fpga.caller.interfaces"="layout_transformed" "orig.arg.no"="1" %_1, [4 x i16]* noalias align 512 "fpga.caller.interfaces"="layout_transformed" "orig.arg.no"="1" %_2, [4 x [6 x %"struct.ap_fixed<16, 16, AP_TRN, AP_WRAP, 0>"]]* noalias readonly "orig.arg.no"="2", [6 x i16]* noalias align 512 "fpga.caller.interfaces"="layout_transformed" "orig.arg.no"="3" %_01, [6 x i16]* noalias align 512 "fpga.caller.interfaces"="layout_transformed" "orig.arg.no"="3" %_12, [6 x i16]* noalias align 512 "fpga.caller.interfaces"="layout_transformed" "orig.arg.no"="3" %_23, [6 x i16]* noalias align 512 "fpga.caller.interfaces"="layout_transformed" "orig.arg.no"="3" %_34, [3 x [6 x %"struct.ap_fixed<16, 16, AP_TRN, AP_WRAP, 0>"]]* noalias readonly "orig.arg.no"="4", [3 x [6 x i16]]* noalias align 512 "orig.arg.no"="5") #4 {
entry:
  call void @"onebyonecpy_hls.p0a3a4struct.ap_fixed<16, 16, AP_TRN, AP_WRAP, 0>.3.4"([4 x i16]* align 512 %_0, [4 x i16]* align 512 %_1, [4 x i16]* align 512 %_2, [3 x [4 x %"struct.ap_fixed<16, 16, AP_TRN, AP_WRAP, 0>"]]* %0)
  call void @"onebyonecpy_hls.p0a4a6struct.ap_fixed<16, 16, AP_TRN, AP_WRAP, 0>.5.6"([6 x i16]* align 512 %_01, [6 x i16]* align 512 %_12, [6 x i16]* align 512 %_23, [6 x i16]* align 512 %_34, [4 x [6 x %"struct.ap_fixed<16, 16, AP_TRN, AP_WRAP, 0>"]]* %1)
  call fastcc void @"onebyonecpy_hls.p0a3a6struct.ap_fixed<16, 16, AP_TRN, AP_WRAP, 0>"([3 x [6 x i16]]* align 512 %3, [3 x [6 x %"struct.ap_fixed<16, 16, AP_TRN, AP_WRAP, 0>"]]* %2)
  ret void
}

; Function Attrs: argmemonly noinline norecurse
define internal void @"onebyonecpy_hls.p0a3a4struct.ap_fixed<16, 16, AP_TRN, AP_WRAP, 0>.11.12"([3 x [4 x %"struct.ap_fixed<16, 16, AP_TRN, AP_WRAP, 0>"]]* noalias "fpga.caller.interfaces"="layout_transformed" "orig.arg.no"="0", [4 x i16]* noalias readonly align 512 "fpga.caller.interfaces"="layout_transformed" "orig.arg.no"="1" %_0, [4 x i16]* noalias readonly align 512 "fpga.caller.interfaces"="layout_transformed" "orig.arg.no"="1" %_1, [4 x i16]* noalias readonly align 512 "fpga.caller.interfaces"="layout_transformed" "orig.arg.no"="1" %_2) #2 {
entry:
  %1 = icmp eq [3 x [4 x %"struct.ap_fixed<16, 16, AP_TRN, AP_WRAP, 0>"]]* %0, null
  %2 = icmp eq [4 x i16]* %_0, null
  %3 = or i1 %1, %2
  br i1 %3, label %ret, label %copy

copy:                                             ; preds = %entry
  br label %for.loop

for.loop:                                         ; preds = %for.loop.split, %copy
  %for.loop.idx16 = phi i64 [ 0, %copy ], [ %for.loop.idx.next, %for.loop.split ]
  %4 = trunc i64 %for.loop.idx16 to i2
  %5 = icmp eq i2 %4, -2
  br label %for.loop2

for.loop2:                                        ; preds = %src.addr6.0.0.013.exit, %for.loop
  %for.loop.idx315 = phi i64 [ 0, %for.loop ], [ %for.loop.idx3.next, %src.addr6.0.0.013.exit ]
  %6 = getelementptr [4 x i16], [4 x i16]* %_0, i64 0, i64 %for.loop.idx315
  %7 = getelementptr [4 x i16], [4 x i16]* %_1, i64 0, i64 %for.loop.idx315
  %8 = getelementptr [4 x i16], [4 x i16]* %_2, i64 0, i64 %for.loop.idx315
  %dst.addr5.0.0.014 = getelementptr [3 x [4 x %"struct.ap_fixed<16, 16, AP_TRN, AP_WRAP, 0>"]], [3 x [4 x %"struct.ap_fixed<16, 16, AP_TRN, AP_WRAP, 0>"]]* %0, i64 0, i64 %for.loop.idx16, i64 %for.loop.idx315, i32 0, i32 0, i32 0
  switch i2 %4, label %src.addr6.0.0.013.case.2 [
    i2 0, label %src.addr6.0.0.013.case.0
    i2 1, label %src.addr6.0.0.013.case.1
  ]

src.addr6.0.0.013.case.0:                         ; preds = %for.loop2
  %9 = load i16, i16* %6, align 2
  br label %src.addr6.0.0.013.exit

src.addr6.0.0.013.case.1:                         ; preds = %for.loop2
  %10 = load i16, i16* %7, align 2
  br label %src.addr6.0.0.013.exit

src.addr6.0.0.013.case.2:                         ; preds = %for.loop2
  call void @llvm.assume(i1 %5)
  %11 = load i16, i16* %8, align 2
  br label %src.addr6.0.0.013.exit

src.addr6.0.0.013.exit:                           ; preds = %src.addr6.0.0.013.case.2, %src.addr6.0.0.013.case.1, %src.addr6.0.0.013.case.0
  %12 = phi i16 [ %9, %src.addr6.0.0.013.case.0 ], [ %10, %src.addr6.0.0.013.case.1 ], [ %11, %src.addr6.0.0.013.case.2 ]
  store i16 %12, i16* %dst.addr5.0.0.014, align 2
  %for.loop.idx3.next = add nuw nsw i64 %for.loop.idx315, 1
  %exitcond = icmp ne i64 %for.loop.idx3.next, 4
  br i1 %exitcond, label %for.loop2, label %for.loop.split

for.loop.split:                                   ; preds = %src.addr6.0.0.013.exit
  %for.loop.idx.next = add nuw nsw i64 %for.loop.idx16, 1
  %exitcond17 = icmp ne i64 %for.loop.idx.next, 3
  br i1 %exitcond17, label %for.loop, label %ret

ret:                                              ; preds = %for.loop.split, %entry
  ret void
}

; Function Attrs: argmemonly noinline norecurse
define internal void @"onebyonecpy_hls.p0a4a6struct.ap_fixed<16, 16, AP_TRN, AP_WRAP, 0>.13.14"([4 x [6 x %"struct.ap_fixed<16, 16, AP_TRN, AP_WRAP, 0>"]]* noalias "fpga.caller.interfaces"="layout_transformed" "orig.arg.no"="0", [6 x i16]* noalias readonly align 512 "fpga.caller.interfaces"="layout_transformed" "orig.arg.no"="1" %_0, [6 x i16]* noalias readonly align 512 "fpga.caller.interfaces"="layout_transformed" "orig.arg.no"="1" %_1, [6 x i16]* noalias readonly align 512 "fpga.caller.interfaces"="layout_transformed" "orig.arg.no"="1" %_2, [6 x i16]* noalias readonly align 512 "fpga.caller.interfaces"="layout_transformed" "orig.arg.no"="1" %_3) #2 {
entry:
  %1 = icmp eq [4 x [6 x %"struct.ap_fixed<16, 16, AP_TRN, AP_WRAP, 0>"]]* %0, null
  %2 = icmp eq [6 x i16]* %_0, null
  %3 = or i1 %1, %2
  br i1 %3, label %ret, label %copy

copy:                                             ; preds = %entry
  br label %for.loop

for.loop:                                         ; preds = %for.loop.split, %copy
  %for.loop.idx16 = phi i64 [ 0, %copy ], [ %for.loop.idx.next, %for.loop.split ]
  %4 = trunc i64 %for.loop.idx16 to i2
  br label %for.loop2

for.loop2:                                        ; preds = %src.addr6.0.0.013.exit, %for.loop
  %for.loop.idx315 = phi i64 [ 0, %for.loop ], [ %for.loop.idx3.next, %src.addr6.0.0.013.exit ]
  %5 = getelementptr [6 x i16], [6 x i16]* %_0, i64 0, i64 %for.loop.idx315
  %6 = getelementptr [6 x i16], [6 x i16]* %_1, i64 0, i64 %for.loop.idx315
  %7 = getelementptr [6 x i16], [6 x i16]* %_2, i64 0, i64 %for.loop.idx315
  %8 = getelementptr [6 x i16], [6 x i16]* %_3, i64 0, i64 %for.loop.idx315
  %dst.addr5.0.0.014 = getelementptr [4 x [6 x %"struct.ap_fixed<16, 16, AP_TRN, AP_WRAP, 0>"]], [4 x [6 x %"struct.ap_fixed<16, 16, AP_TRN, AP_WRAP, 0>"]]* %0, i64 0, i64 %for.loop.idx16, i64 %for.loop.idx315, i32 0, i32 0, i32 0
  switch i2 %4, label %src.addr6.0.0.013.case.3 [
    i2 0, label %src.addr6.0.0.013.case.0
    i2 1, label %src.addr6.0.0.013.case.1
    i2 -2, label %src.addr6.0.0.013.case.2
  ]

src.addr6.0.0.013.case.0:                         ; preds = %for.loop2
  %9 = load i16, i16* %5, align 2
  br label %src.addr6.0.0.013.exit

src.addr6.0.0.013.case.1:                         ; preds = %for.loop2
  %10 = load i16, i16* %6, align 2
  br label %src.addr6.0.0.013.exit

src.addr6.0.0.013.case.2:                         ; preds = %for.loop2
  %11 = load i16, i16* %7, align 2
  br label %src.addr6.0.0.013.exit

src.addr6.0.0.013.case.3:                         ; preds = %for.loop2
  %12 = load i16, i16* %8, align 2
  br label %src.addr6.0.0.013.exit

src.addr6.0.0.013.exit:                           ; preds = %src.addr6.0.0.013.case.3, %src.addr6.0.0.013.case.2, %src.addr6.0.0.013.case.1, %src.addr6.0.0.013.case.0
  %13 = phi i16 [ %9, %src.addr6.0.0.013.case.0 ], [ %10, %src.addr6.0.0.013.case.1 ], [ %11, %src.addr6.0.0.013.case.2 ], [ %12, %src.addr6.0.0.013.case.3 ]
  store i16 %13, i16* %dst.addr5.0.0.014, align 2
  %for.loop.idx3.next = add nuw nsw i64 %for.loop.idx315, 1
  %exitcond = icmp ne i64 %for.loop.idx3.next, 6
  br i1 %exitcond, label %for.loop2, label %for.loop.split

for.loop.split:                                   ; preds = %src.addr6.0.0.013.exit
  %for.loop.idx.next = add nuw nsw i64 %for.loop.idx16, 1
  %exitcond17 = icmp ne i64 %for.loop.idx.next, 4
  br i1 %exitcond17, label %for.loop, label %ret

ret:                                              ; preds = %for.loop.split, %entry
  ret void
}

; Function Attrs: argmemonly noinline norecurse
define internal void @copy_out([3 x [4 x %"struct.ap_fixed<16, 16, AP_TRN, AP_WRAP, 0>"]]* noalias "orig.arg.no"="0", [4 x i16]* noalias readonly align 512 "fpga.caller.interfaces"="layout_transformed" "orig.arg.no"="1" %_0, [4 x i16]* noalias readonly align 512 "fpga.caller.interfaces"="layout_transformed" "orig.arg.no"="1" %_1, [4 x i16]* noalias readonly align 512 "fpga.caller.interfaces"="layout_transformed" "orig.arg.no"="1" %_2, [4 x [6 x %"struct.ap_fixed<16, 16, AP_TRN, AP_WRAP, 0>"]]* noalias "orig.arg.no"="2", [6 x i16]* noalias readonly align 512 "fpga.caller.interfaces"="layout_transformed" "orig.arg.no"="3" %_01, [6 x i16]* noalias readonly align 512 "fpga.caller.interfaces"="layout_transformed" "orig.arg.no"="3" %_12, [6 x i16]* noalias readonly align 512 "fpga.caller.interfaces"="layout_transformed" "orig.arg.no"="3" %_23, [6 x i16]* noalias readonly align 512 "fpga.caller.interfaces"="layout_transformed" "orig.arg.no"="3" %_34, [3 x [6 x %"struct.ap_fixed<16, 16, AP_TRN, AP_WRAP, 0>"]]* noalias "orig.arg.no"="4", [3 x [6 x i16]]* noalias readonly align 512 "orig.arg.no"="5") #5 {
entry:
  call void @"onebyonecpy_hls.p0a3a4struct.ap_fixed<16, 16, AP_TRN, AP_WRAP, 0>.11.12"([3 x [4 x %"struct.ap_fixed<16, 16, AP_TRN, AP_WRAP, 0>"]]* %0, [4 x i16]* align 512 %_0, [4 x i16]* align 512 %_1, [4 x i16]* align 512 %_2)
  call void @"onebyonecpy_hls.p0a4a6struct.ap_fixed<16, 16, AP_TRN, AP_WRAP, 0>.13.14"([4 x [6 x %"struct.ap_fixed<16, 16, AP_TRN, AP_WRAP, 0>"]]* %1, [6 x i16]* align 512 %_01, [6 x i16]* align 512 %_12, [6 x i16]* align 512 %_23, [6 x i16]* align 512 %_34)
  call fastcc void @"onebyonecpy_hls.p0a3a6struct.ap_fixed<16, 16, AP_TRN, AP_WRAP, 0>.19"([3 x [6 x %"struct.ap_fixed<16, 16, AP_TRN, AP_WRAP, 0>"]]* %2, [3 x [6 x i16]]* align 512 %3)
  ret void
}

; Function Attrs: argmemonly noinline norecurse
define internal fastcc void @"onebyonecpy_hls.p0a3a6struct.ap_fixed<16, 16, AP_TRN, AP_WRAP, 0>.19"([3 x [6 x %"struct.ap_fixed<16, 16, AP_TRN, AP_WRAP, 0>"]]* noalias, [3 x [6 x i16]]* noalias readonly align 512) unnamed_addr #2 {
entry:
  %2 = icmp eq [3 x [6 x %"struct.ap_fixed<16, 16, AP_TRN, AP_WRAP, 0>"]]* %0, null
  %3 = icmp eq [3 x [6 x i16]]* %1, null
  %4 = or i1 %2, %3
  br i1 %4, label %ret, label %copy

copy:                                             ; preds = %entry
  br label %for.loop

for.loop:                                         ; preds = %for.loop.split, %copy
  %for.loop.idx16 = phi i64 [ 0, %copy ], [ %for.loop.idx.next, %for.loop.split ]
  br label %for.loop2

for.loop2:                                        ; preds = %for.loop2, %for.loop
  %for.loop.idx315 = phi i64 [ 0, %for.loop ], [ %for.loop.idx3.next, %for.loop2 ]
  %5 = getelementptr [3 x [6 x i16]], [3 x [6 x i16]]* %1, i64 0, i64 %for.loop.idx16, i64 %for.loop.idx315
  %dst.addr5.0.0.014 = getelementptr [3 x [6 x %"struct.ap_fixed<16, 16, AP_TRN, AP_WRAP, 0>"]], [3 x [6 x %"struct.ap_fixed<16, 16, AP_TRN, AP_WRAP, 0>"]]* %0, i64 0, i64 %for.loop.idx16, i64 %for.loop.idx315, i32 0, i32 0, i32 0
  %6 = load i16, i16* %5, align 2
  store i16 %6, i16* %dst.addr5.0.0.014, align 2
  %for.loop.idx3.next = add nuw nsw i64 %for.loop.idx315, 1
  %exitcond = icmp ne i64 %for.loop.idx3.next, 6
  br i1 %exitcond, label %for.loop2, label %for.loop.split

for.loop.split:                                   ; preds = %for.loop2
  %for.loop.idx.next = add nuw nsw i64 %for.loop.idx16, 1
  %exitcond17 = icmp ne i64 %for.loop.idx.next, 3
  br i1 %exitcond17, label %for.loop, label %ret

ret:                                              ; preds = %for.loop.split, %entry
  ret void
}

declare void @apatb_mmul_hw([4 x i16]*, [4 x i16]*, [4 x i16]*, [4 x i16]*, [6 x i16]*, [6 x i16]*, [6 x i16]*, [6 x i16]*, [6 x i16]*)

; Function Attrs: argmemonly noinline norecurse
define internal void @copy_back([3 x [4 x %"struct.ap_fixed<16, 16, AP_TRN, AP_WRAP, 0>"]]* noalias "orig.arg.no"="0", [4 x i16]* noalias readonly align 512 "fpga.caller.interfaces"="layout_transformed" "orig.arg.no"="1" %_0, [4 x i16]* noalias readonly align 512 "fpga.caller.interfaces"="layout_transformed" "orig.arg.no"="1" %_1, [4 x i16]* noalias readonly align 512 "fpga.caller.interfaces"="layout_transformed" "orig.arg.no"="1" %_2, [4 x [6 x %"struct.ap_fixed<16, 16, AP_TRN, AP_WRAP, 0>"]]* noalias "orig.arg.no"="2", [6 x i16]* noalias readonly align 512 "fpga.caller.interfaces"="layout_transformed" "orig.arg.no"="3" %_01, [6 x i16]* noalias readonly align 512 "fpga.caller.interfaces"="layout_transformed" "orig.arg.no"="3" %_12, [6 x i16]* noalias readonly align 512 "fpga.caller.interfaces"="layout_transformed" "orig.arg.no"="3" %_23, [6 x i16]* noalias readonly align 512 "fpga.caller.interfaces"="layout_transformed" "orig.arg.no"="3" %_34, [3 x [6 x %"struct.ap_fixed<16, 16, AP_TRN, AP_WRAP, 0>"]]* noalias "orig.arg.no"="4", [3 x [6 x i16]]* noalias readonly align 512 "orig.arg.no"="5") #5 {
entry:
  call fastcc void @"onebyonecpy_hls.p0a3a6struct.ap_fixed<16, 16, AP_TRN, AP_WRAP, 0>.19"([3 x [6 x %"struct.ap_fixed<16, 16, AP_TRN, AP_WRAP, 0>"]]* %2, [3 x [6 x i16]]* align 512 %3)
  ret void
}

define void @mmul_hw_stub_wrapper([4 x i16]*, [4 x i16]*, [4 x i16]*, [4 x i16]*, [6 x i16]*, [6 x i16]*, [6 x i16]*, [6 x i16]*, [6 x i16]*) #6 {
entry:
  %9 = alloca [3 x [4 x %"struct.ap_fixed<16, 16, AP_TRN, AP_WRAP, 0>"]]
  %10 = alloca [4 x [6 x %"struct.ap_fixed<16, 16, AP_TRN, AP_WRAP, 0>"]]
  %11 = alloca [3 x [6 x %"struct.ap_fixed<16, 16, AP_TRN, AP_WRAP, 0>"]]
  %12 = bitcast [6 x i16]* %8 to [3 x [6 x i16]]*
  call void @copy_out([3 x [4 x %"struct.ap_fixed<16, 16, AP_TRN, AP_WRAP, 0>"]]* %9, [4 x i16]* %0, [4 x i16]* %1, [4 x i16]* %2, [4 x [6 x %"struct.ap_fixed<16, 16, AP_TRN, AP_WRAP, 0>"]]* %10, [6 x i16]* %4, [6 x i16]* %5, [6 x i16]* %6, [6 x i16]* %7, [3 x [6 x %"struct.ap_fixed<16, 16, AP_TRN, AP_WRAP, 0>"]]* %11, [3 x [6 x i16]]* %12)
  %13 = bitcast [3 x [4 x %"struct.ap_fixed<16, 16, AP_TRN, AP_WRAP, 0>"]]* %9 to [4 x %"struct.ap_fixed<16, 16, AP_TRN, AP_WRAP, 0>"]*
  %14 = bitcast [4 x [6 x %"struct.ap_fixed<16, 16, AP_TRN, AP_WRAP, 0>"]]* %10 to [6 x %"struct.ap_fixed<16, 16, AP_TRN, AP_WRAP, 0>"]*
  %15 = bitcast [3 x [6 x %"struct.ap_fixed<16, 16, AP_TRN, AP_WRAP, 0>"]]* %11 to [6 x %"struct.ap_fixed<16, 16, AP_TRN, AP_WRAP, 0>"]*
  call void @mmul_hw_stub([4 x %"struct.ap_fixed<16, 16, AP_TRN, AP_WRAP, 0>"]* %13, [6 x %"struct.ap_fixed<16, 16, AP_TRN, AP_WRAP, 0>"]* %14, [6 x %"struct.ap_fixed<16, 16, AP_TRN, AP_WRAP, 0>"]* %15)
  call void @copy_in([3 x [4 x %"struct.ap_fixed<16, 16, AP_TRN, AP_WRAP, 0>"]]* %9, [4 x i16]* %0, [4 x i16]* %1, [4 x i16]* %2, [4 x [6 x %"struct.ap_fixed<16, 16, AP_TRN, AP_WRAP, 0>"]]* %10, [6 x i16]* %4, [6 x i16]* %5, [6 x i16]* %6, [6 x i16]* %7, [3 x [6 x %"struct.ap_fixed<16, 16, AP_TRN, AP_WRAP, 0>"]]* %11, [3 x [6 x i16]]* %12)
  ret void
}

declare void @mmul_hw_stub([4 x %"struct.ap_fixed<16, 16, AP_TRN, AP_WRAP, 0>"]*, [6 x %"struct.ap_fixed<16, 16, AP_TRN, AP_WRAP, 0>"]*, [6 x %"struct.ap_fixed<16, 16, AP_TRN, AP_WRAP, 0>"]*)

attributes #0 = { inaccessiblememonly nounwind }
attributes #1 = { inaccessiblemem_or_argmemonly noinline "fpga.wrapper.func"="wrapper" }
attributes #2 = { argmemonly noinline norecurse "fpga.wrapper.func"="onebyonecpy_hls" }
attributes #3 = { nounwind }
attributes #4 = { argmemonly noinline norecurse "fpga.wrapper.func"="copyin" }
attributes #5 = { argmemonly noinline norecurse "fpga.wrapper.func"="copyout" }
attributes #6 = { "fpga.wrapper.func"="stub" }

!llvm.dbg.cu = !{}
!llvm.ident = !{!0, !0, !0, !0, !0, !0, !0, !0, !0, !0, !0, !0, !0, !0, !0, !0, !0, !0, !0, !0, !0, !0, !0, !0, !0, !0, !0, !0, !0, !0, !0, !0, !0, !0, !0, !0, !0, !0, !0, !0, !0, !0, !0, !0, !0, !0, !0, !0, !0, !0, !0, !0, !0, !0, !0, !0, !0, !0, !0, !0, !0, !0, !0, !0, !0, !0, !0, !0, !0, !0, !0, !0, !0, !0, !0, !0, !0, !0, !0, !0, !0, !0, !0, !0, !0, !0, !0, !0, !0, !0, !0, !0, !0, !0, !0, !0, !0, !0, !0, !0, !0, !0, !0, !0, !0, !0, !0, !0, !0, !0, !0, !0, !0, !0, !0, !0, !0, !0, !0, !0, !0, !0, !0, !0, !0, !0, !0, !0, !0, !0, !0, !0, !0, !0, !0, !0, !0, !0, !0, !0, !0, !0, !0, !0, !0, !0, !0, !0, !0, !0, !0, !0, !0, !0, !0, !0, !0, !0, !0, !0, !0, !0, !0, !0, !0, !0, !0, !0, !0, !0, !0, !0, !0, !0, !0, !0, !0, !0, !0, !0, !0, !0, !0, !0, !0, !0, !0, !0, !0, !0, !0, !0, !0, !0, !0, !0, !0, !0, !0, !0, !0, !0, !0, !0, !0, !0, !0, !0, !0, !0, !0, !0, !0, !0, !0, !0, !0, !0, !0, !0, !0, !0, !0, !0, !0, !0, !0, !0, !0, !0, !0, !0, !0, !0, !0, !0, !0, !0, !0, !0, !0, !0, !0, !0, !0, !0, !0, !0, !0, !0, !0, !0, !0, !0, !0, !0, !0, !0, !0, !0, !0, !0, !0, !0, !0, !0, !0, !0, !0, !0, !0, !0, !0, !0, !0, !0, !0, !0, !0, !0, !0, !0, !0, !0, !0, !0, !0, !0, !0, !0, !0, !0, !0, !0, !0, !0, !0, !0, !0, !0, !0, !0, !0, !0, !0, !0, !0, !0, !0, !0, !0, !0, !0, !0, !0, !0, !0, !0, !0, !0, !0, !0, !0, !0, !0, !0, !0, !0, !0, !0, !0, !0, !0, !0, !0, !0, !0, !0, !0, !0, !0, !0, !0, !0, !0, !0, !0, !0, !0, !0, !0, !0, !0, !0, !0, !0, !0, !0, !0, !0, !0, !0, !0, !0, !0, !0, !0, !0, !0, !0, !0, !0, !0, !0, !0, !0, !0, !0, !0, !0, !0, !0, !0, !0, !0, !0, !0, !0, !0, !0, !0, !0, !0, !0, !0, !0, !0, !0, !0, !0, !0, !0, !0, !0, !0, !0, !0, !0, !0, !0, !0, !0, !0, !0, !0, !0, !0, !0, !0, !0, !0, !0, !0, !0, !0, !0, !0, !0, !0, !0, !0, !0, !0, !0, !0, !0, !0, !0, !0, !0, !0, !0, !0, !0, !0, !0, !0, !0, !0, !0, !0, !0, !0, !0, !0, !0, !0, !0, !0, !0, !0, !0, !0, !0, !0, !0, !0, !0, !0, !0, !0, !0, !0, !0, !0, !0, !0, !0, !0, !0, !0, !0, !0, !0, !0, !0, !0, !0, !0, !0, !0, !0, !0, !0, !0, !0, !0, !0, !0, !0, !0, !0, !0, !0, !0, !0, !0, !0, !0, !0, !0, !0, !0, !0, !0, !0, !0, !0, !0, !0, !0, !0, !0, !0, !0, !0, !0, !0, !0, !0, !0, !0, !0, !0, !0, !0, !0, !0, !0, !0, !0, !0, !0, !0, !0, !0, !0, !0, !0, !0, !0, !0, !0, !0, !0, !0, !0, !0, !0, !0, !0, !0, !0, !0, !0, !0, !0, !0, !0, !0, !0, !0, !0, !0, !0, !0, !0, !0, !0, !0, !0, !0, !0, !0, !0}
!llvm.module.flags = !{!1, !2, !3}
!blackbox_cfg = !{!4}

!0 = !{!"clang version 7.0.0 "}
!1 = !{i32 2, !"Dwarf Version", i32 4}
!2 = !{i32 2, !"Debug Info Version", i32 3}
!3 = !{i32 1, !"wchar_size", i32 4}
!4 = !{}
!5 = !DILocation(line: 8, column: 9, scope: !6)
!6 = !DILexicalBlockFile(scope: !8, file: !7, discriminator: 0)
!7 = !DIFile(filename: "Z:/ECC/Desktop/Winter2023/ELEN226/Assignment3/mmul/solution3/directives.tcl", directory: "Z:\5CECC\5CDesktop\5CWinter2023\5CELEN226\5CAssignment3")
!8 = distinct !DISubprogram(name: "mmul", linkageName: "_Z4mmulPA4_8ap_fixedILi16ELi16EL9ap_q_mode5EL9ap_o_mode3ELi0EEPA6_S2_S6_", scope: !9, file: !9, line: 3, type: !10, isLocal: false, isDefinition: true, scopeLine: 4, flags: DIFlagPrototyped, isOptimized: false, unit: !5535, variables: !4)
!9 = !DIFile(filename: "mmul.cpp", directory: "Z:\5CECC\5CDesktop\5CWinter2023\5CELEN226\5CAssignment3")
!10 = !DISubroutineType(types: !11)
!11 = !{null, !12, !5531, !5531}
!12 = !DIDerivedType(tag: DW_TAG_pointer_type, baseType: !13, size: 64)
!13 = !DICompositeType(tag: DW_TAG_array_type, baseType: !14, size: 64, elements: !5529)
!14 = !DIDerivedType(tag: DW_TAG_typedef, name: "MM_DATA_T", file: !15, line: 24, baseType: !16)
!15 = !DIFile(filename: "./mmul.h", directory: "Z:\5CECC\5CDesktop\5CWinter2023\5CELEN226\5CAssignment3")
!16 = distinct !DICompositeType(tag: DW_TAG_structure_type, name: "ap_fixed<16, 16, AP_TRN, AP_WRAP, 0>", file: !17, line: 64, size: 16, flags: DIFlagTypePassByValue, elements: !18, templateParams: !5528, identifier: "_ZTS8ap_fixedILi16ELi16EL9ap_q_mode5EL9ap_o_mode3ELi0EE")
!17 = !DIFile(filename: "C:/Apps/Xilinx/Vitis_HLS/2022.1/common/technology/autopilot\5Cap_fixed.h", directory: "Z:\5CECC\5CDesktop\5CWinter2023\5CELEN226\5CAssignment3")
!18 = !{!19, !5451, !5455, !5458, !5461, !5464, !5467, !5470, !5473, !5476, !5479, !5482, !5485, !5488, !5491, !5494, !5497, !5500, !5503, !5506, !5509, !5515, !5520, !5525}
!19 = !DIDerivedType(tag: DW_TAG_inheritance, scope: !16, baseType: !20)
!20 = distinct !DICompositeType(tag: DW_TAG_structure_type, name: "ap_fixed_base<16, 16, true, AP_TRN, AP_WRAP, 0>", file: !21, line: 156, size: 16, flags: DIFlagTypePassByValue, elements: !22, templateParams: !4757, identifier: "_ZTS13ap_fixed_baseILi16ELi16ELb1EL9ap_q_mode5EL9ap_o_mode3ELi0EE")
!21 = !DIFile(filename: "C:/Apps/Xilinx/Vitis_HLS/2022.1/common/technology/autopilot\5Cap_fixed_base.h", directory: "Z:\5CECC\5CDesktop\5CWinter2023\5CELEN226\5CAssignment3")
!22 = !{!23, !41, !43, !44, !56, !65, !69, !72, !75, !80, !81, !87, !91, !95, !98, !102, !107, !111, !116, !119, !124, !129, !134, !140, !146, !150, !154, !159, !163, !166, !169, !1767, !1770, !1771, !1774, !1777, !1780, !1783, !1786, !1789, !1792, !1796, !1797, !1798, !1799, !1802, !1803, !1806, !1809, !1812, !1815, !1816, !1817, !1820, !1823, !1824, !1825, !1826, !1827, !1830, !1831, !1834, !1835, !1842, !4683, !4686, !4687, !4690, !4693, !4694, !4697, !4698, !4701, !4704, !4705, !4706, !4709, !4710, !4711, !4712, !4713, !4714, !4759, !4762, !4763, !4764, !4767, !5426, !5429, !5432, !5435, !5436, !5437, !5438, !5439, !5440, !5441, !5444, !5447, !5448}
!23 = !DIDerivedType(tag: DW_TAG_inheritance, scope: !20, baseType: !24)
!24 = distinct !DICompositeType(tag: DW_TAG_structure_type, name: "ssdm_int<16, true>", file: !25, line: 555, size: 16, flags: DIFlagTypePassByValue, elements: !26, templateParams: !36, identifier: "_ZTS8ssdm_intILi16ELb1EE")
!25 = !DIFile(filename: "C:/Apps/Xilinx/Vitis_HLS/2022.1/common/technology/autopilot\5Cap_common.h", directory: "Z:\5CECC\5CDesktop\5CWinter2023\5CELEN226\5CAssignment3")
!26 = !{!27, !29, !33}
!27 = !DIDerivedType(tag: DW_TAG_member, name: "V", scope: !24, file: !25, line: 557, baseType: !28, size: 16)
!28 = !DIBasicType(name: "short", size: 16, encoding: DW_ATE_signed)
!29 = !DISubprogram(name: "ssdm_int", scope: !24, file: !25, line: 558, type: !30, isLocal: false, isDefinition: false, scopeLine: 558, flags: DIFlagPrototyped, isOptimized: false)
!30 = !DISubroutineType(types: !31)
!31 = !{null, !32}
!32 = !DIDerivedType(tag: DW_TAG_pointer_type, baseType: !24, size: 64, flags: DIFlagArtificial | DIFlagObjectPointer)
!33 = !DISubprogram(name: "ssdm_int", scope: !24, file: !25, line: 559, type: !34, isLocal: false, isDefinition: false, scopeLine: 559, flags: DIFlagPrototyped, isOptimized: false)
!34 = !DISubroutineType(types: !35)
!35 = !{null, !32, !28}
!36 = !{!37, !39}
!37 = !DITemplateValueParameter(name: "_AP_N", type: !38, value: i32 16)
!38 = !DIBasicType(name: "int", size: 32, encoding: DW_ATE_signed)
!39 = !DITemplateValueParameter(name: "_AP_S", type: !40, value: i8 1)
!40 = !DIBasicType(name: "bool", size: 8, encoding: DW_ATE_boolean)
!41 = !DIDerivedType(tag: DW_TAG_member, name: "width", scope: !20, file: !21, line: 159, baseType: !42, flags: DIFlagStaticMember, extraData: i32 16)
!42 = !DIDerivedType(tag: DW_TAG_const_type, baseType: !38)
!43 = !DIDerivedType(tag: DW_TAG_member, name: "iwidth", scope: !20, file: !21, line: 160, baseType: !42, flags: DIFlagStaticMember, extraData: i32 16)
!44 = !DIDerivedType(tag: DW_TAG_member, name: "qmode", scope: !20, file: !21, line: 161, baseType: !45, flags: DIFlagStaticMember, extraData: i32 5)
!45 = !DIDerivedType(tag: DW_TAG_const_type, baseType: !46)
!46 = distinct !DICompositeType(tag: DW_TAG_enumeration_type, name: "ap_q_mode", file: !47, line: 100, size: 32, elements: !48, identifier: "_ZTS9ap_q_mode")
!47 = !DIFile(filename: "C:/Apps/Xilinx/Vitis_HLS/2022.1/common/technology/autopilot\5Cap_decl.h", directory: "Z:\5CECC\5CDesktop\5CWinter2023\5CELEN226\5CAssignment3")
!48 = !{!49, !50, !51, !52, !53, !54, !55}
!49 = !DIEnumerator(name: "AP_RND", value: 0)
!50 = !DIEnumerator(name: "AP_RND_ZERO", value: 1)
!51 = !DIEnumerator(name: "AP_RND_MIN_INF", value: 2)
!52 = !DIEnumerator(name: "AP_RND_INF", value: 3)
!53 = !DIEnumerator(name: "AP_RND_CONV", value: 4)
!54 = !DIEnumerator(name: "AP_TRN", value: 5)
!55 = !DIEnumerator(name: "AP_TRN_ZERO", value: 6)
!56 = !DIDerivedType(tag: DW_TAG_member, name: "omode", scope: !20, file: !21, line: 162, baseType: !57, flags: DIFlagStaticMember, extraData: i32 3)
!57 = !DIDerivedType(tag: DW_TAG_const_type, baseType: !58)
!58 = distinct !DICompositeType(tag: DW_TAG_enumeration_type, name: "ap_o_mode", file: !47, line: 122, size: 32, elements: !59, identifier: "_ZTS9ap_o_mode")
!59 = !{!60, !61, !62, !63, !64}
!60 = !DIEnumerator(name: "AP_SAT", value: 0)
!61 = !DIEnumerator(name: "AP_SAT_ZERO", value: 1)
!62 = !DIEnumerator(name: "AP_SAT_SYM", value: 2)
!63 = !DIEnumerator(name: "AP_WRAP", value: 3)
!64 = !DIEnumerator(name: "AP_WRAP_SM", value: 4)
!65 = !DISubprogram(name: "report", linkageName: "_ZN13ap_fixed_baseILi16ELi16ELb1EL9ap_q_mode5EL9ap_o_mode3ELi0EE6reportEv", scope: !20, file: !21, line: 341, type: !66, isLocal: false, isDefinition: false, scopeLine: 341, flags: DIFlagPrivate | DIFlagPrototyped, isOptimized: false)
!66 = !DISubroutineType(types: !67)
!67 = !{null, !68}
!68 = !DIDerivedType(tag: DW_TAG_pointer_type, baseType: !20, size: 64, flags: DIFlagArtificial | DIFlagObjectPointer)
!69 = !DISubprogram(name: "overflow_adjust", linkageName: "_ZN13ap_fixed_baseILi16ELi16ELb1EL9ap_q_mode5EL9ap_o_mode3ELi0EE15overflow_adjustEbbbb", scope: !20, file: !21, line: 346, type: !70, isLocal: false, isDefinition: false, scopeLine: 346, flags: DIFlagPrivate | DIFlagPrototyped, isOptimized: false)
!70 = !DISubroutineType(types: !71)
!71 = !{null, !68, !40, !40, !40, !40}
!72 = !DISubprogram(name: "quantization_adjust", linkageName: "_ZN13ap_fixed_baseILi16ELi16ELb1EL9ap_q_mode5EL9ap_o_mode3ELi0EE19quantization_adjustEbbb", scope: !20, file: !21, line: 410, type: !73, isLocal: false, isDefinition: false, scopeLine: 410, flags: DIFlagPrivate | DIFlagPrototyped, isOptimized: false)
!73 = !DISubroutineType(types: !74)
!74 = !{!40, !68, !40, !40, !40}
!75 = !DISubprogram(name: "countLeadingOnes", linkageName: "_ZNK13ap_fixed_baseILi16ELi16ELb1EL9ap_q_mode5EL9ap_o_mode3ELi0EE16countLeadingOnesEv", scope: !20, file: !21, line: 428, type: !76, isLocal: false, isDefinition: false, scopeLine: 428, flags: DIFlagPrivate | DIFlagPrototyped, isOptimized: false)
!76 = !DISubroutineType(types: !77)
!77 = !{!38, !78}
!78 = !DIDerivedType(tag: DW_TAG_pointer_type, baseType: !79, size: 64, flags: DIFlagArtificial | DIFlagObjectPointer)
!79 = !DIDerivedType(tag: DW_TAG_const_type, baseType: !20)
!80 = !DISubprogram(name: "ap_fixed_base", scope: !20, file: !21, line: 441, type: !66, isLocal: false, isDefinition: false, scopeLine: 441, flags: DIFlagPrototyped, isOptimized: false)
!81 = !DISubprogram(name: "ap_fixed_base", scope: !20, file: !21, line: 502, type: !82, isLocal: false, isDefinition: false, scopeLine: 502, flags: DIFlagPrototyped, isOptimized: false)
!82 = !DISubroutineType(types: !83)
!83 = !{null, !68, !84}
!84 = !DIDerivedType(tag: DW_TAG_pointer_type, baseType: !85, size: 64)
!85 = !DIDerivedType(tag: DW_TAG_const_type, baseType: !86)
!86 = !DIBasicType(name: "char", size: 8, encoding: DW_ATE_signed_char)
!87 = !DISubprogram(name: "ap_fixed_base", scope: !20, file: !21, line: 508, type: !88, isLocal: false, isDefinition: false, scopeLine: 508, flags: DIFlagPrototyped, isOptimized: false)
!88 = !DISubroutineType(types: !89)
!89 = !{null, !68, !84, !90}
!90 = !DIBasicType(name: "signed char", size: 8, encoding: DW_ATE_signed_char)
!91 = !DISubprogram(name: "ap_fixed_base", scope: !20, file: !21, line: 570, type: !92, isLocal: false, isDefinition: false, scopeLine: 570, flags: DIFlagPrototyped, isOptimized: false)
!92 = !DISubroutineType(types: !93)
!93 = !{null, !68, !94}
!94 = !DIDerivedType(tag: DW_TAG_const_type, baseType: !40)
!95 = !DISubprogram(name: "ap_fixed_base", scope: !20, file: !21, line: 571, type: !96, isLocal: false, isDefinition: false, scopeLine: 571, flags: DIFlagPrototyped, isOptimized: false)
!96 = !DISubroutineType(types: !97)
!97 = !{null, !68, !85}
!98 = !DISubprogram(name: "ap_fixed_base", scope: !20, file: !21, line: 572, type: !99, isLocal: false, isDefinition: false, scopeLine: 572, flags: DIFlagPrototyped, isOptimized: false)
!99 = !DISubroutineType(types: !100)
!100 = !{null, !68, !101}
!101 = !DIDerivedType(tag: DW_TAG_const_type, baseType: !90)
!102 = !DISubprogram(name: "ap_fixed_base", scope: !20, file: !21, line: 573, type: !103, isLocal: false, isDefinition: false, scopeLine: 573, flags: DIFlagPrototyped, isOptimized: false)
!103 = !DISubroutineType(types: !104)
!104 = !{null, !68, !105}
!105 = !DIDerivedType(tag: DW_TAG_const_type, baseType: !106)
!106 = !DIBasicType(name: "unsigned char", size: 8, encoding: DW_ATE_unsigned_char)
!107 = !DISubprogram(name: "ap_fixed_base", scope: !20, file: !21, line: 574, type: !108, isLocal: false, isDefinition: false, scopeLine: 574, flags: DIFlagPrototyped, isOptimized: false)
!108 = !DISubroutineType(types: !109)
!109 = !{null, !68, !110}
!110 = !DIDerivedType(tag: DW_TAG_const_type, baseType: !28)
!111 = !DISubprogram(name: "ap_fixed_base", scope: !20, file: !21, line: 575, type: !112, isLocal: false, isDefinition: false, scopeLine: 575, flags: DIFlagPrototyped, isOptimized: false)
!112 = !DISubroutineType(types: !113)
!113 = !{null, !68, !114}
!114 = !DIDerivedType(tag: DW_TAG_const_type, baseType: !115)
!115 = !DIBasicType(name: "unsigned short", size: 16, encoding: DW_ATE_unsigned)
!116 = !DISubprogram(name: "ap_fixed_base", scope: !20, file: !21, line: 576, type: !117, isLocal: false, isDefinition: false, scopeLine: 576, flags: DIFlagPrototyped, isOptimized: false)
!117 = !DISubroutineType(types: !118)
!118 = !{null, !68, !42}
!119 = !DISubprogram(name: "ap_fixed_base", scope: !20, file: !21, line: 577, type: !120, isLocal: false, isDefinition: false, scopeLine: 577, flags: DIFlagPrototyped, isOptimized: false)
!120 = !DISubroutineType(types: !121)
!121 = !{null, !68, !122}
!122 = !DIDerivedType(tag: DW_TAG_const_type, baseType: !123)
!123 = !DIBasicType(name: "unsigned int", size: 32, encoding: DW_ATE_unsigned)
!124 = !DISubprogram(name: "ap_fixed_base", scope: !20, file: !21, line: 578, type: !125, isLocal: false, isDefinition: false, scopeLine: 578, flags: DIFlagPrototyped, isOptimized: false)
!125 = !DISubroutineType(types: !126)
!126 = !{null, !68, !127}
!127 = !DIDerivedType(tag: DW_TAG_const_type, baseType: !128)
!128 = !DIBasicType(name: "long int", size: 64, encoding: DW_ATE_signed)
!129 = !DISubprogram(name: "ap_fixed_base", scope: !20, file: !21, line: 579, type: !130, isLocal: false, isDefinition: false, scopeLine: 579, flags: DIFlagPrototyped, isOptimized: false)
!130 = !DISubroutineType(types: !131)
!131 = !{null, !68, !132}
!132 = !DIDerivedType(tag: DW_TAG_const_type, baseType: !133)
!133 = !DIBasicType(name: "long unsigned int", size: 64, encoding: DW_ATE_unsigned)
!134 = !DISubprogram(name: "ap_fixed_base", scope: !20, file: !21, line: 580, type: !135, isLocal: false, isDefinition: false, scopeLine: 580, flags: DIFlagPrototyped, isOptimized: false)
!135 = !DISubroutineType(types: !136)
!136 = !{null, !68, !137}
!137 = !DIDerivedType(tag: DW_TAG_const_type, baseType: !138)
!138 = !DIDerivedType(tag: DW_TAG_typedef, name: "ap_slong", file: !47, line: 233, baseType: !139)
!139 = !DIBasicType(name: "long long int", size: 64, encoding: DW_ATE_signed)
!140 = !DISubprogram(name: "ap_fixed_base", scope: !20, file: !21, line: 581, type: !141, isLocal: false, isDefinition: false, scopeLine: 581, flags: DIFlagPrototyped, isOptimized: false)
!141 = !DISubroutineType(types: !142)
!142 = !{null, !68, !143}
!143 = !DIDerivedType(tag: DW_TAG_const_type, baseType: !144)
!144 = !DIDerivedType(tag: DW_TAG_typedef, name: "ap_ulong", file: !47, line: 234, baseType: !145)
!145 = !DIBasicType(name: "long long unsigned int", size: 64, encoding: DW_ATE_unsigned)
!146 = !DISubprogram(name: "ap_fixed_base", scope: !20, file: !21, line: 589, type: !147, isLocal: false, isDefinition: false, scopeLine: 589, flags: DIFlagPrototyped, isOptimized: false)
!147 = !DISubroutineType(types: !148)
!148 = !{null, !68, !149}
!149 = !DIBasicType(name: "double", size: 64, encoding: DW_ATE_float)
!150 = !DISubprogram(name: "ap_fixed_base", scope: !20, file: !21, line: 707, type: !151, isLocal: false, isDefinition: false, scopeLine: 707, flags: DIFlagPrototyped, isOptimized: false)
!151 = !DISubroutineType(types: !152)
!152 = !{null, !68, !153}
!153 = !DIBasicType(name: "float", size: 32, encoding: DW_ATE_float)
!154 = !DISubprogram(name: "ap_fixed_base", scope: !20, file: !21, line: 710, type: !155, isLocal: false, isDefinition: false, scopeLine: 710, flags: DIFlagPrototyped, isOptimized: false)
!155 = !DISubroutineType(types: !156)
!156 = !{null, !68, !157}
!157 = !DIDerivedType(tag: DW_TAG_typedef, name: "half", file: !25, line: 657, baseType: !158)
!158 = !DIBasicType(name: "__fp16", size: 16, encoding: DW_ATE_float)
!159 = !DISubprogram(name: "setBits", linkageName: "_ZN13ap_fixed_baseILi16ELi16ELb1EL9ap_q_mode5EL9ap_o_mode3ELi0EE7setBitsEy", scope: !20, file: !21, line: 963, type: !160, isLocal: false, isDefinition: false, scopeLine: 963, flags: DIFlagPrototyped, isOptimized: false)
!160 = !DISubroutineType(types: !161)
!161 = !{!162, !68, !144}
!162 = !DIDerivedType(tag: DW_TAG_reference_type, baseType: !20, size: 64)
!163 = !DISubprogram(name: "bitsToFixed", linkageName: "_ZN13ap_fixed_baseILi16ELi16ELb1EL9ap_q_mode5EL9ap_o_mode3ELi0EE11bitsToFixedEy", scope: !20, file: !21, line: 970, type: !164, isLocal: false, isDefinition: false, scopeLine: 970, flags: DIFlagPrototyped | DIFlagStaticMember, isOptimized: false)
!164 = !DISubroutineType(types: !165)
!165 = !{!20, !144}
!166 = !DISubprogram(name: "checkOverflowCsimFix", linkageName: "_ZNK13ap_fixed_baseILi16ELi16ELb1EL9ap_q_mode5EL9ap_o_mode3ELi0EE20checkOverflowCsimFixEib", scope: !20, file: !21, line: 981, type: !167, isLocal: false, isDefinition: false, scopeLine: 981, flags: DIFlagPrototyped, isOptimized: false)
!167 = !DISubroutineType(types: !168)
!168 = !{null, !78, !38, !40}
!169 = !DISubprogram(name: "to_ap_int_base", linkageName: "_ZNK13ap_fixed_baseILi16ELi16ELb1EL9ap_q_mode5EL9ap_o_mode3ELi0EE14to_ap_int_baseEb", scope: !20, file: !21, line: 1027, type: !170, isLocal: false, isDefinition: false, scopeLine: 1027, flags: DIFlagPrototyped, isOptimized: false)
!170 = !DISubroutineType(types: !171)
!171 = !{!172, !78, !40}
!172 = distinct !DICompositeType(tag: DW_TAG_structure_type, name: "ap_int_base<16, true>", file: !173, line: 154, size: 16, flags: DIFlagTypePassByValue, elements: !174, templateParams: !1753, identifier: "_ZTS11ap_int_baseILi16ELb1EE")
!173 = !DIFile(filename: "C:/Apps/Xilinx/Vitis_HLS/2022.1/common/technology/autopilot\5Cap_int_base.h", directory: "Z:\5CECC\5CDesktop\5CWinter2023\5CELEN226\5CAssignment3")
!174 = !{!175, !176, !177, !178, !183, !187, !190, !193, !196, !199, !202, !205, !208, !211, !214, !217, !220, !223, !226, !229, !232, !235, !238, !243, !247, !252, !253, !257, !260, !263, !266, !269, !272, !275, !278, !281, !284, !287, !290, !293, !296, !304, !307, !310, !313, !316, !319, !322, !323, !326, !329, !332, !335, !338, !341, !344, !347, !351, !352, !353, !354, !355, !358, !359, !362, !365, !366, !369, !370, !371, !372, !373, !374, !375, !378, !379, !380, !479, !480, !483, !1647, !1648, !1649, !1653, !1656, !1659, !1662, !1663, !1664, !1754, !1755, !1756, !1757, !1758, !1759, !1760, !1761, !1762, !1763, !1764}
!175 = !DIDerivedType(tag: DW_TAG_inheritance, scope: !172, baseType: !24)
!176 = !DIDerivedType(tag: DW_TAG_member, name: "width", scope: !172, file: !173, line: 176, baseType: !42, flags: DIFlagStaticMember, extraData: i32 16)
!177 = !DIDerivedType(tag: DW_TAG_member, name: "sign_flag", scope: !172, file: !173, line: 177, baseType: !94, flags: DIFlagStaticMember, extraData: i1 true)
!178 = !DISubprogram(name: "countLeadingOnes", linkageName: "_ZNK11ap_int_baseILi16ELb1EE16countLeadingOnesEv", scope: !172, file: !173, line: 156, type: !179, isLocal: false, isDefinition: false, scopeLine: 156, flags: DIFlagPrivate | DIFlagPrototyped, isOptimized: false)
!179 = !DISubroutineType(types: !180)
!180 = !{!38, !181}
!181 = !DIDerivedType(tag: DW_TAG_pointer_type, baseType: !182, size: 64, flags: DIFlagArtificial | DIFlagObjectPointer)
!182 = !DIDerivedType(tag: DW_TAG_const_type, baseType: !172)
!183 = !DISubprogram(name: "ap_int_base", scope: !172, file: !173, line: 221, type: !184, isLocal: false, isDefinition: false, scopeLine: 221, flags: DIFlagPrototyped, isOptimized: false)
!184 = !DISubroutineType(types: !185)
!185 = !{null, !186}
!186 = !DIDerivedType(tag: DW_TAG_pointer_type, baseType: !172, size: 64, flags: DIFlagArtificial | DIFlagObjectPointer)
!187 = !DISubprogram(name: "ap_int_base", scope: !172, file: !173, line: 254, type: !188, isLocal: false, isDefinition: false, scopeLine: 254, flags: DIFlagPrototyped, isOptimized: false)
!188 = !DISubroutineType(types: !189)
!189 = !{null, !186, !94}
!190 = !DISubprogram(name: "ap_int_base", scope: !172, file: !173, line: 255, type: !191, isLocal: false, isDefinition: false, scopeLine: 255, flags: DIFlagPrototyped, isOptimized: false)
!191 = !DISubroutineType(types: !192)
!192 = !{null, !186, !85}
!193 = !DISubprogram(name: "ap_int_base", scope: !172, file: !173, line: 256, type: !194, isLocal: false, isDefinition: false, scopeLine: 256, flags: DIFlagPrototyped, isOptimized: false)
!194 = !DISubroutineType(types: !195)
!195 = !{null, !186, !101}
!196 = !DISubprogram(name: "ap_int_base", scope: !172, file: !173, line: 257, type: !197, isLocal: false, isDefinition: false, scopeLine: 257, flags: DIFlagPrototyped, isOptimized: false)
!197 = !DISubroutineType(types: !198)
!198 = !{null, !186, !105}
!199 = !DISubprogram(name: "ap_int_base", scope: !172, file: !173, line: 258, type: !200, isLocal: false, isDefinition: false, scopeLine: 258, flags: DIFlagPrototyped, isOptimized: false)
!200 = !DISubroutineType(types: !201)
!201 = !{null, !186, !110}
!202 = !DISubprogram(name: "ap_int_base", scope: !172, file: !173, line: 259, type: !203, isLocal: false, isDefinition: false, scopeLine: 259, flags: DIFlagPrototyped, isOptimized: false)
!203 = !DISubroutineType(types: !204)
!204 = !{null, !186, !114}
!205 = !DISubprogram(name: "ap_int_base", scope: !172, file: !173, line: 260, type: !206, isLocal: false, isDefinition: false, scopeLine: 260, flags: DIFlagPrototyped, isOptimized: false)
!206 = !DISubroutineType(types: !207)
!207 = !{null, !186, !42}
!208 = !DISubprogram(name: "ap_int_base", scope: !172, file: !173, line: 261, type: !209, isLocal: false, isDefinition: false, scopeLine: 261, flags: DIFlagPrototyped, isOptimized: false)
!209 = !DISubroutineType(types: !210)
!210 = !{null, !186, !122}
!211 = !DISubprogram(name: "ap_int_base", scope: !172, file: !173, line: 262, type: !212, isLocal: false, isDefinition: false, scopeLine: 262, flags: DIFlagPrototyped, isOptimized: false)
!212 = !DISubroutineType(types: !213)
!213 = !{null, !186, !127}
!214 = !DISubprogram(name: "ap_int_base", scope: !172, file: !173, line: 263, type: !215, isLocal: false, isDefinition: false, scopeLine: 263, flags: DIFlagPrototyped, isOptimized: false)
!215 = !DISubroutineType(types: !216)
!216 = !{null, !186, !132}
!217 = !DISubprogram(name: "ap_int_base", scope: !172, file: !173, line: 264, type: !218, isLocal: false, isDefinition: false, scopeLine: 264, flags: DIFlagPrototyped, isOptimized: false)
!218 = !DISubroutineType(types: !219)
!219 = !{null, !186, !137}
!220 = !DISubprogram(name: "ap_int_base", scope: !172, file: !173, line: 265, type: !221, isLocal: false, isDefinition: false, scopeLine: 265, flags: DIFlagPrototyped, isOptimized: false)
!221 = !DISubroutineType(types: !222)
!222 = !{null, !186, !143}
!223 = !DISubprogram(name: "ap_int_base", scope: !172, file: !173, line: 270, type: !224, isLocal: false, isDefinition: false, scopeLine: 270, flags: DIFlagPrototyped, isOptimized: false)
!224 = !DISubroutineType(types: !225)
!225 = !{null, !186, !157}
!226 = !DISubprogram(name: "ap_int_base", scope: !172, file: !173, line: 276, type: !227, isLocal: false, isDefinition: false, scopeLine: 276, flags: DIFlagPrototyped, isOptimized: false)
!227 = !DISubroutineType(types: !228)
!228 = !{null, !186, !153}
!229 = !DISubprogram(name: "ap_int_base", scope: !172, file: !173, line: 335, type: !230, isLocal: false, isDefinition: false, scopeLine: 335, flags: DIFlagPrototyped, isOptimized: false)
!230 = !DISubroutineType(types: !231)
!231 = !{null, !186, !149}
!232 = !DISubprogram(name: "ap_int_base", scope: !172, file: !173, line: 431, type: !233, isLocal: false, isDefinition: false, scopeLine: 431, flags: DIFlagPrototyped, isOptimized: false)
!233 = !DISubroutineType(types: !234)
!234 = !{null, !186, !84}
!235 = !DISubprogram(name: "ap_int_base", scope: !172, file: !173, line: 437, type: !236, isLocal: false, isDefinition: false, scopeLine: 437, flags: DIFlagPrototyped, isOptimized: false)
!236 = !DISubroutineType(types: !237)
!237 = !{null, !186, !84, !90}
!238 = !DISubprogram(name: "read", linkageName: "_ZNV11ap_int_baseILi16ELb1EE4readEv", scope: !172, file: !173, line: 459, type: !239, isLocal: false, isDefinition: false, scopeLine: 459, flags: DIFlagPrototyped, isOptimized: false)
!239 = !DISubroutineType(types: !240)
!240 = !{!172, !241}
!241 = !DIDerivedType(tag: DW_TAG_pointer_type, baseType: !242, size: 64, flags: DIFlagArtificial | DIFlagObjectPointer)
!242 = !DIDerivedType(tag: DW_TAG_volatile_type, baseType: !172)
!243 = !DISubprogram(name: "write", linkageName: "_ZNV11ap_int_baseILi16ELb1EE5writeERKS0_", scope: !172, file: !173, line: 466, type: !244, isLocal: false, isDefinition: false, scopeLine: 466, flags: DIFlagPrototyped, isOptimized: false)
!244 = !DISubroutineType(types: !245)
!245 = !{null, !241, !246}
!246 = !DIDerivedType(tag: DW_TAG_reference_type, baseType: !182, size: 64)
!247 = !DISubprogram(name: "operator=", linkageName: "_ZNV11ap_int_baseILi16ELb1EEaSERVKS0_", scope: !172, file: !173, line: 478, type: !248, isLocal: false, isDefinition: false, scopeLine: 478, flags: DIFlagPrototyped, isOptimized: false)
!248 = !DISubroutineType(types: !249)
!249 = !{null, !241, !250}
!250 = !DIDerivedType(tag: DW_TAG_reference_type, baseType: !251, size: 64)
!251 = !DIDerivedType(tag: DW_TAG_const_type, baseType: !242)
!252 = !DISubprogram(name: "operator=", linkageName: "_ZNV11ap_int_baseILi16ELb1EEaSERKS0_", scope: !172, file: !173, line: 488, type: !244, isLocal: false, isDefinition: false, scopeLine: 488, flags: DIFlagPrototyped, isOptimized: false)
!253 = !DISubprogram(name: "operator=", linkageName: "_ZN11ap_int_baseILi16ELb1EEaSERVKS0_", scope: !172, file: !173, line: 505, type: !254, isLocal: false, isDefinition: false, scopeLine: 505, flags: DIFlagPrototyped, isOptimized: false)
!254 = !DISubroutineType(types: !255)
!255 = !{!256, !186, !250}
!256 = !DIDerivedType(tag: DW_TAG_reference_type, baseType: !172, size: 64)
!257 = !DISubprogram(name: "operator=", linkageName: "_ZN11ap_int_baseILi16ELb1EEaSERKS0_", scope: !172, file: !173, line: 511, type: !258, isLocal: false, isDefinition: false, scopeLine: 511, flags: DIFlagPrototyped, isOptimized: false)
!258 = !DISubroutineType(types: !259)
!259 = !{!256, !186, !246}
!260 = !DISubprogram(name: "operator=", linkageName: "_ZN11ap_int_baseILi16ELb1EEaSEb", scope: !172, file: !173, line: 525, type: !261, isLocal: false, isDefinition: false, scopeLine: 525, flags: DIFlagPrototyped, isOptimized: false)
!261 = !DISubroutineType(types: !262)
!262 = !{!256, !186, !40}
!263 = !DISubprogram(name: "operator=", linkageName: "_ZN11ap_int_baseILi16ELb1EEaSEc", scope: !172, file: !173, line: 526, type: !264, isLocal: false, isDefinition: false, scopeLine: 526, flags: DIFlagPrototyped, isOptimized: false)
!264 = !DISubroutineType(types: !265)
!265 = !{!256, !186, !86}
!266 = !DISubprogram(name: "operator=", linkageName: "_ZN11ap_int_baseILi16ELb1EEaSEa", scope: !172, file: !173, line: 527, type: !267, isLocal: false, isDefinition: false, scopeLine: 527, flags: DIFlagPrototyped, isOptimized: false)
!267 = !DISubroutineType(types: !268)
!268 = !{!256, !186, !90}
!269 = !DISubprogram(name: "operator=", linkageName: "_ZN11ap_int_baseILi16ELb1EEaSEh", scope: !172, file: !173, line: 528, type: !270, isLocal: false, isDefinition: false, scopeLine: 528, flags: DIFlagPrototyped, isOptimized: false)
!270 = !DISubroutineType(types: !271)
!271 = !{!256, !186, !106}
!272 = !DISubprogram(name: "operator=", linkageName: "_ZN11ap_int_baseILi16ELb1EEaSEs", scope: !172, file: !173, line: 529, type: !273, isLocal: false, isDefinition: false, scopeLine: 529, flags: DIFlagPrototyped, isOptimized: false)
!273 = !DISubroutineType(types: !274)
!274 = !{!256, !186, !28}
!275 = !DISubprogram(name: "operator=", linkageName: "_ZN11ap_int_baseILi16ELb1EEaSEt", scope: !172, file: !173, line: 530, type: !276, isLocal: false, isDefinition: false, scopeLine: 530, flags: DIFlagPrototyped, isOptimized: false)
!276 = !DISubroutineType(types: !277)
!277 = !{!256, !186, !115}
!278 = !DISubprogram(name: "operator=", linkageName: "_ZN11ap_int_baseILi16ELb1EEaSEi", scope: !172, file: !173, line: 531, type: !279, isLocal: false, isDefinition: false, scopeLine: 531, flags: DIFlagPrototyped, isOptimized: false)
!279 = !DISubroutineType(types: !280)
!280 = !{!256, !186, !38}
!281 = !DISubprogram(name: "operator=", linkageName: "_ZN11ap_int_baseILi16ELb1EEaSEj", scope: !172, file: !173, line: 532, type: !282, isLocal: false, isDefinition: false, scopeLine: 532, flags: DIFlagPrototyped, isOptimized: false)
!282 = !DISubroutineType(types: !283)
!283 = !{!256, !186, !123}
!284 = !DISubprogram(name: "operator=", linkageName: "_ZN11ap_int_baseILi16ELb1EEaSEl", scope: !172, file: !173, line: 533, type: !285, isLocal: false, isDefinition: false, scopeLine: 533, flags: DIFlagPrototyped, isOptimized: false)
!285 = !DISubroutineType(types: !286)
!286 = !{!256, !186, !128}
!287 = !DISubprogram(name: "operator=", linkageName: "_ZN11ap_int_baseILi16ELb1EEaSEm", scope: !172, file: !173, line: 534, type: !288, isLocal: false, isDefinition: false, scopeLine: 534, flags: DIFlagPrototyped, isOptimized: false)
!288 = !DISubroutineType(types: !289)
!289 = !{!256, !186, !133}
!290 = !DISubprogram(name: "operator=", linkageName: "_ZN11ap_int_baseILi16ELb1EEaSEx", scope: !172, file: !173, line: 535, type: !291, isLocal: false, isDefinition: false, scopeLine: 535, flags: DIFlagPrototyped, isOptimized: false)
!291 = !DISubroutineType(types: !292)
!292 = !{!256, !186, !138}
!293 = !DISubprogram(name: "operator=", linkageName: "_ZN11ap_int_baseILi16ELb1EEaSEy", scope: !172, file: !173, line: 536, type: !294, isLocal: false, isDefinition: false, scopeLine: 536, flags: DIFlagPrototyped, isOptimized: false)
!294 = !DISubroutineType(types: !295)
!295 = !{!256, !186, !144}
!296 = !DISubprogram(name: "operator long long", linkageName: "_ZNK11ap_int_baseILi16ELb1EEcvxEv", scope: !172, file: !173, line: 587, type: !297, isLocal: false, isDefinition: false, scopeLine: 587, flags: DIFlagPrototyped, isOptimized: false)
!297 = !DISubroutineType(types: !298)
!298 = !{!299, !181}
!299 = !DIDerivedType(tag: DW_TAG_typedef, name: "RetType", scope: !172, file: !173, line: 174, baseType: !300)
!300 = !DIDerivedType(tag: DW_TAG_typedef, name: "Type", scope: !301, file: !173, line: 92, baseType: !138)
!301 = distinct !DICompositeType(tag: DW_TAG_structure_type, name: "retval<8, true>", file: !173, line: 91, size: 8, flags: DIFlagTypePassByValue, elements: !4, templateParams: !302, identifier: "_ZTS6retvalILi8ELb1EE")
!302 = !{!303, !39}
!303 = !DITemplateValueParameter(name: "_AP_N", type: !38, value: i32 8)
!304 = !DISubprogram(name: "to_bool", linkageName: "_ZNK11ap_int_baseILi16ELb1EE7to_boolEv", scope: !172, file: !173, line: 592, type: !305, isLocal: false, isDefinition: false, scopeLine: 592, flags: DIFlagPrototyped, isOptimized: false)
!305 = !DISubroutineType(types: !306)
!306 = !{!40, !181}
!307 = !DISubprogram(name: "to_char", linkageName: "_ZNK11ap_int_baseILi16ELb1EE7to_charEv", scope: !172, file: !173, line: 593, type: !308, isLocal: false, isDefinition: false, scopeLine: 593, flags: DIFlagPrototyped, isOptimized: false)
!308 = !DISubroutineType(types: !309)
!309 = !{!86, !181}
!310 = !DISubprogram(name: "to_schar", linkageName: "_ZNK11ap_int_baseILi16ELb1EE8to_scharEv", scope: !172, file: !173, line: 594, type: !311, isLocal: false, isDefinition: false, scopeLine: 594, flags: DIFlagPrototyped, isOptimized: false)
!311 = !DISubroutineType(types: !312)
!312 = !{!90, !181}
!313 = !DISubprogram(name: "to_uchar", linkageName: "_ZNK11ap_int_baseILi16ELb1EE8to_ucharEv", scope: !172, file: !173, line: 595, type: !314, isLocal: false, isDefinition: false, scopeLine: 595, flags: DIFlagPrototyped, isOptimized: false)
!314 = !DISubroutineType(types: !315)
!315 = !{!106, !181}
!316 = !DISubprogram(name: "to_short", linkageName: "_ZNK11ap_int_baseILi16ELb1EE8to_shortEv", scope: !172, file: !173, line: 596, type: !317, isLocal: false, isDefinition: false, scopeLine: 596, flags: DIFlagPrototyped, isOptimized: false)
!317 = !DISubroutineType(types: !318)
!318 = !{!28, !181}
!319 = !DISubprogram(name: "to_ushort", linkageName: "_ZNK11ap_int_baseILi16ELb1EE9to_ushortEv", scope: !172, file: !173, line: 597, type: !320, isLocal: false, isDefinition: false, scopeLine: 597, flags: DIFlagPrototyped, isOptimized: false)
!320 = !DISubroutineType(types: !321)
!321 = !{!115, !181}
!322 = !DISubprogram(name: "to_int", linkageName: "_ZNK11ap_int_baseILi16ELb1EE6to_intEv", scope: !172, file: !173, line: 598, type: !179, isLocal: false, isDefinition: false, scopeLine: 598, flags: DIFlagPrototyped, isOptimized: false)
!323 = !DISubprogram(name: "to_uint", linkageName: "_ZNK11ap_int_baseILi16ELb1EE7to_uintEv", scope: !172, file: !173, line: 599, type: !324, isLocal: false, isDefinition: false, scopeLine: 599, flags: DIFlagPrototyped, isOptimized: false)
!324 = !DISubroutineType(types: !325)
!325 = !{!123, !181}
!326 = !DISubprogram(name: "to_long", linkageName: "_ZNK11ap_int_baseILi16ELb1EE7to_longEv", scope: !172, file: !173, line: 600, type: !327, isLocal: false, isDefinition: false, scopeLine: 600, flags: DIFlagPrototyped, isOptimized: false)
!327 = !DISubroutineType(types: !328)
!328 = !{!128, !181}
!329 = !DISubprogram(name: "to_ulong", linkageName: "_ZNK11ap_int_baseILi16ELb1EE8to_ulongEv", scope: !172, file: !173, line: 601, type: !330, isLocal: false, isDefinition: false, scopeLine: 601, flags: DIFlagPrototyped, isOptimized: false)
!330 = !DISubroutineType(types: !331)
!331 = !{!133, !181}
!332 = !DISubprogram(name: "to_int64", linkageName: "_ZNK11ap_int_baseILi16ELb1EE8to_int64Ev", scope: !172, file: !173, line: 602, type: !333, isLocal: false, isDefinition: false, scopeLine: 602, flags: DIFlagPrototyped, isOptimized: false)
!333 = !DISubroutineType(types: !334)
!334 = !{!138, !181}
!335 = !DISubprogram(name: "to_uint64", linkageName: "_ZNK11ap_int_baseILi16ELb1EE9to_uint64Ev", scope: !172, file: !173, line: 603, type: !336, isLocal: false, isDefinition: false, scopeLine: 603, flags: DIFlagPrototyped, isOptimized: false)
!336 = !DISubroutineType(types: !337)
!337 = !{!144, !181}
!338 = !DISubprogram(name: "to_half", linkageName: "_ZNK11ap_int_baseILi16ELb1EE7to_halfEv", scope: !172, file: !173, line: 604, type: !339, isLocal: false, isDefinition: false, scopeLine: 604, flags: DIFlagPrototyped, isOptimized: false)
!339 = !DISubroutineType(types: !340)
!340 = !{!157, !181}
!341 = !DISubprogram(name: "to_float", linkageName: "_ZNK11ap_int_baseILi16ELb1EE8to_floatEv", scope: !172, file: !173, line: 605, type: !342, isLocal: false, isDefinition: false, scopeLine: 605, flags: DIFlagPrototyped, isOptimized: false)
!342 = !DISubroutineType(types: !343)
!343 = !{!153, !181}
!344 = !DISubprogram(name: "to_double", linkageName: "_ZNK11ap_int_baseILi16ELb1EE9to_doubleEv", scope: !172, file: !173, line: 606, type: !345, isLocal: false, isDefinition: false, scopeLine: 606, flags: DIFlagPrototyped, isOptimized: false)
!345 = !DISubroutineType(types: !346)
!346 = !{!149, !181}
!347 = !DISubprogram(name: "length", linkageName: "_ZNVK11ap_int_baseILi16ELb1EE6lengthEv", scope: !172, file: !173, line: 630, type: !348, isLocal: false, isDefinition: false, scopeLine: 630, flags: DIFlagPrototyped, isOptimized: false)
!348 = !DISubroutineType(types: !349)
!349 = !{!38, !350}
!350 = !DIDerivedType(tag: DW_TAG_pointer_type, baseType: !251, size: 64, flags: DIFlagArtificial | DIFlagObjectPointer)
!351 = !DISubprogram(name: "length", linkageName: "_ZNK11ap_int_baseILi16ELb1EE6lengthEv", scope: !172, file: !173, line: 631, type: !179, isLocal: false, isDefinition: false, scopeLine: 631, flags: DIFlagPrototyped, isOptimized: false)
!352 = !DISubprogram(name: "iszero", linkageName: "_ZNK11ap_int_baseILi16ELb1EE6iszeroEv", scope: !172, file: !173, line: 634, type: !305, isLocal: false, isDefinition: false, scopeLine: 634, flags: DIFlagPrototyped, isOptimized: false)
!353 = !DISubprogram(name: "is_zero", linkageName: "_ZNK11ap_int_baseILi16ELb1EE7is_zeroEv", scope: !172, file: !173, line: 637, type: !305, isLocal: false, isDefinition: false, scopeLine: 637, flags: DIFlagPrototyped, isOptimized: false)
!354 = !DISubprogram(name: "sign", linkageName: "_ZNK11ap_int_baseILi16ELb1EE4signEv", scope: !172, file: !173, line: 640, type: !305, isLocal: false, isDefinition: false, scopeLine: 640, flags: DIFlagPrototyped, isOptimized: false)
!355 = !DISubprogram(name: "clear", linkageName: "_ZN11ap_int_baseILi16ELb1EE5clearEi", scope: !172, file: !173, line: 649, type: !356, isLocal: false, isDefinition: false, scopeLine: 649, flags: DIFlagPrototyped, isOptimized: false)
!356 = !DISubroutineType(types: !357)
!357 = !{null, !186, !38}
!358 = !DISubprogram(name: "invert", linkageName: "_ZN11ap_int_baseILi16ELb1EE6invertEi", scope: !172, file: !173, line: 655, type: !356, isLocal: false, isDefinition: false, scopeLine: 655, flags: DIFlagPrototyped, isOptimized: false)
!359 = !DISubprogram(name: "test", linkageName: "_ZNK11ap_int_baseILi16ELb1EE4testEi", scope: !172, file: !173, line: 664, type: !360, isLocal: false, isDefinition: false, scopeLine: 664, flags: DIFlagPrototyped, isOptimized: false)
!360 = !DISubroutineType(types: !361)
!361 = !{!40, !181, !38}
!362 = !DISubprogram(name: "get", linkageName: "_ZN11ap_int_baseILi16ELb1EE3getEv", scope: !172, file: !173, line: 670, type: !363, isLocal: false, isDefinition: false, scopeLine: 670, flags: DIFlagPrototyped, isOptimized: false)
!363 = !DISubroutineType(types: !364)
!364 = !{!256, !186}
!365 = !DISubprogram(name: "set", linkageName: "_ZN11ap_int_baseILi16ELb1EE3setEi", scope: !172, file: !173, line: 673, type: !356, isLocal: false, isDefinition: false, scopeLine: 673, flags: DIFlagPrototyped, isOptimized: false)
!366 = !DISubprogram(name: "set", linkageName: "_ZN11ap_int_baseILi16ELb1EE3setEib", scope: !172, file: !173, line: 679, type: !367, isLocal: false, isDefinition: false, scopeLine: 679, flags: DIFlagPrototyped, isOptimized: false)
!367 = !DISubroutineType(types: !368)
!368 = !{null, !186, !38, !40}
!369 = !DISubprogram(name: "lrotate", linkageName: "_ZN11ap_int_baseILi16ELb1EE7lrotateEi", scope: !172, file: !173, line: 686, type: !279, isLocal: false, isDefinition: false, scopeLine: 686, flags: DIFlagPrototyped, isOptimized: false)
!370 = !DISubprogram(name: "rrotate", linkageName: "_ZN11ap_int_baseILi16ELb1EE7rrotateEi", scope: !172, file: !173, line: 701, type: !279, isLocal: false, isDefinition: false, scopeLine: 701, flags: DIFlagPrototyped, isOptimized: false)
!371 = !DISubprogram(name: "reverse", linkageName: "_ZN11ap_int_baseILi16ELb1EE7reverseEv", scope: !172, file: !173, line: 716, type: !363, isLocal: false, isDefinition: false, scopeLine: 716, flags: DIFlagPrototyped, isOptimized: false)
!372 = !DISubprogram(name: "set_bit", linkageName: "_ZN11ap_int_baseILi16ELb1EE7set_bitEib", scope: !172, file: !173, line: 722, type: !367, isLocal: false, isDefinition: false, scopeLine: 722, flags: DIFlagPrototyped, isOptimized: false)
!373 = !DISubprogram(name: "get_bit", linkageName: "_ZNK11ap_int_baseILi16ELb1EE7get_bitEi", scope: !172, file: !173, line: 727, type: !360, isLocal: false, isDefinition: false, scopeLine: 727, flags: DIFlagPrototyped, isOptimized: false)
!374 = !DISubprogram(name: "b_not", linkageName: "_ZN11ap_int_baseILi16ELb1EE5b_notEv", scope: !172, file: !173, line: 732, type: !184, isLocal: false, isDefinition: false, scopeLine: 732, flags: DIFlagPrototyped, isOptimized: false)
!375 = !DISubprogram(name: "checkOverflowCsim", linkageName: "_ZNK11ap_int_baseILi16ELb1EE17checkOverflowCsimEibb", scope: !172, file: !173, line: 806, type: !376, isLocal: false, isDefinition: false, scopeLine: 806, flags: DIFlagPrototyped, isOptimized: false)
!376 = !DISubroutineType(types: !377)
!377 = !{!40, !181, !38, !40, !40}
!378 = !DISubprogram(name: "operator++", linkageName: "_ZN11ap_int_baseILi16ELb1EEppEv", scope: !172, file: !173, line: 911, type: !363, isLocal: false, isDefinition: false, scopeLine: 911, flags: DIFlagPrototyped, isOptimized: false)
!379 = !DISubprogram(name: "operator--", linkageName: "_ZN11ap_int_baseILi16ELb1EEmmEv", scope: !172, file: !173, line: 915, type: !363, isLocal: false, isDefinition: false, scopeLine: 915, flags: DIFlagPrototyped, isOptimized: false)
!380 = !DISubprogram(name: "operator++", linkageName: "_ZN11ap_int_baseILi16ELb1EEppEi", scope: !172, file: !173, line: 923, type: !381, isLocal: false, isDefinition: false, scopeLine: 923, flags: DIFlagPrototyped, isOptimized: false)
!381 = !DISubroutineType(types: !382)
!382 = !{!383, !186, !38}
!383 = !DIDerivedType(tag: DW_TAG_const_type, baseType: !384)
!384 = !DIDerivedType(tag: DW_TAG_typedef, name: "arg1", scope: !385, file: !173, line: 213, baseType: !389)
!385 = distinct !DICompositeType(tag: DW_TAG_structure_type, name: "RType<16, true>", scope: !172, file: !173, line: 180, size: 8, flags: DIFlagTypePassByValue, elements: !4, templateParams: !386, identifier: "_ZTSN11ap_int_baseILi16ELb1EE5RTypeILi16ELb1EEE")
!386 = !{!387, !388}
!387 = !DITemplateValueParameter(name: "_AP_W2", type: !38, value: i32 16)
!388 = !DITemplateValueParameter(name: "_AP_S2", type: !40, value: i8 1)
!389 = !DIDerivedType(tag: DW_TAG_typedef, name: "type", scope: !390, file: !173, line: 149, baseType: !391)
!390 = distinct !DICompositeType(tag: DW_TAG_structure_type, name: "_ap_int_factory<16, true>", file: !173, line: 149, size: 8, flags: DIFlagTypePassByValue, elements: !4, templateParams: !386, identifier: "_ZTS15_ap_int_factoryILi16ELb1EE")
!391 = distinct !DICompositeType(tag: DW_TAG_structure_type, name: "ap_int<16>", file: !392, line: 18, size: 16, flags: DIFlagTypePassByValue, elements: !393, templateParams: !477, identifier: "_ZTS6ap_intILi16EE")
!392 = !DIFile(filename: "r:/ci/prod/2022.1/rdi_builds/continuous/2022_04_18_3526262/src/shared/hls/clib/include/header_files\5Cap_int.h", directory: "R:\5Cci\5Cprod\5C2022.1\5Crdi_builds\5Ccontinuous\5C2022_04_18_3526262\5Csrc\5Cshared")
!393 = !{!394, !395, !399, !402, !405, !408, !411, !414, !417, !420, !423, !426, !429, !432, !437, !441, !444, !447, !452, !455, !458, !464, !470, !474}
!394 = !DIDerivedType(tag: DW_TAG_inheritance, scope: !391, baseType: !172)
!395 = !DISubprogram(name: "ap_int", scope: !391, file: !392, line: 21, type: !396, isLocal: false, isDefinition: false, scopeLine: 21, flags: DIFlagPrototyped, isOptimized: false)
!396 = !DISubroutineType(types: !397)
!397 = !{null, !398}
!398 = !DIDerivedType(tag: DW_TAG_pointer_type, baseType: !391, size: 64, flags: DIFlagArtificial | DIFlagObjectPointer)
!399 = !DISubprogram(name: "ap_int", scope: !391, file: !392, line: 57, type: !400, isLocal: false, isDefinition: false, scopeLine: 57, flags: DIFlagPrototyped, isOptimized: false)
!400 = !DISubroutineType(types: !401)
!401 = !{null, !398, !115, !40}
!402 = !DISubprogram(name: "ap_int", scope: !391, file: !392, line: 127, type: !403, isLocal: false, isDefinition: false, scopeLine: 127, flags: DIFlagPrototyped, isOptimized: false)
!403 = !DISubroutineType(types: !404)
!404 = !{null, !398, !40}
!405 = !DISubprogram(name: "ap_int", scope: !391, file: !392, line: 128, type: !406, isLocal: false, isDefinition: false, scopeLine: 128, flags: DIFlagPrototyped, isOptimized: false)
!406 = !DISubroutineType(types: !407)
!407 = !{null, !398, !86}
!408 = !DISubprogram(name: "ap_int", scope: !391, file: !392, line: 129, type: !409, isLocal: false, isDefinition: false, scopeLine: 129, flags: DIFlagPrototyped, isOptimized: false)
!409 = !DISubroutineType(types: !410)
!410 = !{null, !398, !90}
!411 = !DISubprogram(name: "ap_int", scope: !391, file: !392, line: 130, type: !412, isLocal: false, isDefinition: false, scopeLine: 130, flags: DIFlagPrototyped, isOptimized: false)
!412 = !DISubroutineType(types: !413)
!413 = !{null, !398, !106}
!414 = !DISubprogram(name: "ap_int", scope: !391, file: !392, line: 131, type: !415, isLocal: false, isDefinition: false, scopeLine: 131, flags: DIFlagPrototyped, isOptimized: false)
!415 = !DISubroutineType(types: !416)
!416 = !{null, !398, !28}
!417 = !DISubprogram(name: "ap_int", scope: !391, file: !392, line: 132, type: !418, isLocal: false, isDefinition: false, scopeLine: 132, flags: DIFlagPrototyped, isOptimized: false)
!418 = !DISubroutineType(types: !419)
!419 = !{null, !398, !115}
!420 = !DISubprogram(name: "ap_int", scope: !391, file: !392, line: 133, type: !421, isLocal: false, isDefinition: false, scopeLine: 133, flags: DIFlagPrototyped, isOptimized: false)
!421 = !DISubroutineType(types: !422)
!422 = !{null, !398, !38}
!423 = !DISubprogram(name: "ap_int", scope: !391, file: !392, line: 134, type: !424, isLocal: false, isDefinition: false, scopeLine: 134, flags: DIFlagPrototyped, isOptimized: false)
!424 = !DISubroutineType(types: !425)
!425 = !{null, !398, !123}
!426 = !DISubprogram(name: "ap_int", scope: !391, file: !392, line: 135, type: !427, isLocal: false, isDefinition: false, scopeLine: 135, flags: DIFlagPrototyped, isOptimized: false)
!427 = !DISubroutineType(types: !428)
!428 = !{null, !398, !128}
!429 = !DISubprogram(name: "ap_int", scope: !391, file: !392, line: 136, type: !430, isLocal: false, isDefinition: false, scopeLine: 136, flags: DIFlagPrototyped, isOptimized: false)
!430 = !DISubroutineType(types: !431)
!431 = !{null, !398, !133}
!432 = !DISubprogram(name: "ap_int", scope: !391, file: !392, line: 137, type: !433, isLocal: false, isDefinition: false, scopeLine: 137, flags: DIFlagPrototyped, isOptimized: false)
!433 = !DISubroutineType(types: !434)
!434 = !{null, !398, !435}
!435 = !DIDerivedType(tag: DW_TAG_typedef, name: "ap_slong", file: !436, line: 187, baseType: !139)
!436 = !DIFile(filename: "r:/ci/prod/2022.1/rdi_builds/continuous/2022_04_18_3526262/src/shared/hls/clib/include/header_files\5Cap_decl.h", directory: "R:\5Cci\5Cprod\5C2022.1\5Crdi_builds\5Ccontinuous\5C2022_04_18_3526262\5Csrc\5Cshared")
!437 = !DISubprogram(name: "ap_int", scope: !391, file: !392, line: 138, type: !438, isLocal: false, isDefinition: false, scopeLine: 138, flags: DIFlagPrototyped, isOptimized: false)
!438 = !DISubroutineType(types: !439)
!439 = !{null, !398, !440}
!440 = !DIDerivedType(tag: DW_TAG_typedef, name: "ap_ulong", file: !436, line: 188, baseType: !145)
!441 = !DISubprogram(name: "ap_int", scope: !391, file: !392, line: 140, type: !442, isLocal: false, isDefinition: false, scopeLine: 140, flags: DIFlagPrototyped, isOptimized: false)
!442 = !DISubroutineType(types: !443)
!443 = !{null, !398, !149}
!444 = !DISubprogram(name: "ap_int", scope: !391, file: !392, line: 141, type: !445, isLocal: false, isDefinition: false, scopeLine: 141, flags: DIFlagPrototyped, isOptimized: false)
!445 = !DISubroutineType(types: !446)
!446 = !{null, !398, !153}
!447 = !DISubprogram(name: "ap_int", scope: !391, file: !392, line: 142, type: !448, isLocal: false, isDefinition: false, scopeLine: 142, flags: DIFlagPrototyped, isOptimized: false)
!448 = !DISubroutineType(types: !449)
!449 = !{null, !398, !450}
!450 = !DIDerivedType(tag: DW_TAG_typedef, name: "half", file: !451, line: 611, baseType: !158)
!451 = !DIFile(filename: "r:/ci/prod/2022.1/rdi_builds/continuous/2022_04_18_3526262/src/shared/hls/clib/include/header_files\5Cap_common.h", directory: "R:\5Cci\5Cprod\5C2022.1\5Crdi_builds\5Ccontinuous\5C2022_04_18_3526262\5Csrc\5Cshared")
!452 = !DISubprogram(name: "ap_int", scope: !391, file: !392, line: 145, type: !453, isLocal: false, isDefinition: false, scopeLine: 145, flags: DIFlagPrototyped, isOptimized: false)
!453 = !DISubroutineType(types: !454)
!454 = !{null, !398, !84}
!455 = !DISubprogram(name: "ap_int", scope: !391, file: !392, line: 147, type: !456, isLocal: false, isDefinition: false, scopeLine: 147, flags: DIFlagPrototyped, isOptimized: false)
!456 = !DISubroutineType(types: !457)
!457 = !{null, !398, !84, !90}
!458 = !DISubprogram(name: "operator=", linkageName: "_ZN6ap_intILi16EEaSERKS0_", scope: !391, file: !392, line: 152, type: !459, isLocal: false, isDefinition: false, scopeLine: 152, flags: DIFlagPrototyped, isOptimized: false)
!459 = !DISubroutineType(types: !460)
!460 = !{!461, !398, !462}
!461 = !DIDerivedType(tag: DW_TAG_reference_type, baseType: !391, size: 64)
!462 = !DIDerivedType(tag: DW_TAG_reference_type, baseType: !463, size: 64)
!463 = !DIDerivedType(tag: DW_TAG_const_type, baseType: !391)
!464 = !DISubprogram(name: "operator=", linkageName: "_ZN6ap_intILi16EEaSERVKS0_", scope: !391, file: !392, line: 161, type: !465, isLocal: false, isDefinition: false, scopeLine: 161, flags: DIFlagPrototyped, isOptimized: false)
!465 = !DISubroutineType(types: !466)
!466 = !{!461, !398, !467}
!467 = !DIDerivedType(tag: DW_TAG_reference_type, baseType: !468, size: 64)
!468 = !DIDerivedType(tag: DW_TAG_const_type, baseType: !469)
!469 = !DIDerivedType(tag: DW_TAG_volatile_type, baseType: !391)
!470 = !DISubprogram(name: "operator=", linkageName: "_ZNV6ap_intILi16EEaSERKS0_", scope: !391, file: !392, line: 167, type: !471, isLocal: false, isDefinition: false, scopeLine: 167, flags: DIFlagPrototyped, isOptimized: false)
!471 = !DISubroutineType(types: !472)
!472 = !{null, !473, !462}
!473 = !DIDerivedType(tag: DW_TAG_pointer_type, baseType: !469, size: 64, flags: DIFlagArtificial | DIFlagObjectPointer)
!474 = !DISubprogram(name: "operator=", linkageName: "_ZNV6ap_intILi16EEaSERVKS0_", scope: !391, file: !392, line: 171, type: !475, isLocal: false, isDefinition: false, scopeLine: 171, flags: DIFlagPrototyped, isOptimized: false)
!475 = !DISubroutineType(types: !476)
!476 = !{null, !473, !467}
!477 = !{!478}
!478 = !DITemplateValueParameter(name: "_AP_W", type: !38, value: i32 16)
!479 = !DISubprogram(name: "operator--", linkageName: "_ZN11ap_int_baseILi16ELb1EEmmEi", scope: !172, file: !173, line: 928, type: !381, isLocal: false, isDefinition: false, scopeLine: 928, flags: DIFlagPrototyped, isOptimized: false)
!480 = !DISubprogram(name: "operator+", linkageName: "_ZNK11ap_int_baseILi16ELb1EEpsEv", scope: !172, file: !173, line: 937, type: !481, isLocal: false, isDefinition: false, scopeLine: 937, flags: DIFlagPrototyped, isOptimized: false)
!481 = !DISubroutineType(types: !482)
!482 = !{!384, !181}
!483 = !DISubprogram(name: "operator-", linkageName: "_ZNK11ap_int_baseILi16ELb1EEngEv", scope: !172, file: !173, line: 940, type: !484, isLocal: false, isDefinition: false, scopeLine: 940, flags: DIFlagPrototyped, isOptimized: false)
!484 = !DISubroutineType(types: !485)
!485 = !{!486, !181}
!486 = !DIDerivedType(tag: DW_TAG_typedef, name: "minus", scope: !487, file: !173, line: 209, baseType: !491)
!487 = distinct !DICompositeType(tag: DW_TAG_structure_type, name: "RType<1, false>", scope: !172, file: !173, line: 180, size: 8, flags: DIFlagTypePassByValue, elements: !4, templateParams: !488, identifier: "_ZTSN11ap_int_baseILi16ELb1EE5RTypeILi1ELb0EEE")
!488 = !{!489, !490}
!489 = !DITemplateValueParameter(name: "_AP_W2", type: !38, value: i32 1)
!490 = !DITemplateValueParameter(name: "_AP_S2", type: !40, value: i8 0)
!491 = !DIDerivedType(tag: DW_TAG_typedef, name: "type", scope: !492, file: !173, line: 149, baseType: !495)
!492 = distinct !DICompositeType(tag: DW_TAG_structure_type, name: "_ap_int_factory<17, true>", file: !173, line: 149, size: 8, flags: DIFlagTypePassByValue, elements: !4, templateParams: !493, identifier: "_ZTS15_ap_int_factoryILi17ELb1EE")
!493 = !{!494, !388}
!494 = !DITemplateValueParameter(name: "_AP_W2", type: !38, value: i32 17)
!495 = distinct !DICompositeType(tag: DW_TAG_structure_type, name: "ap_int<17>", file: !392, line: 18, size: 32, flags: DIFlagTypePassByValue, elements: !496, templateParams: !1646, identifier: "_ZTS6ap_intILi17EE")
!496 = !{!497, !1568, !1572, !1576, !1579, !1582, !1585, !1588, !1591, !1594, !1597, !1600, !1603, !1606, !1609, !1612, !1615, !1618, !1621, !1624, !1627, !1633, !1639, !1643}
!497 = !DIDerivedType(tag: DW_TAG_inheritance, scope: !495, baseType: !498)
!498 = distinct !DICompositeType(tag: DW_TAG_structure_type, name: "ap_int_base<17, true>", file: !499, line: 108, size: 32, flags: DIFlagTypePassByValue, elements: !500, templateParams: !1553, identifier: "_ZTS11ap_int_baseILi17ELb1EE")
!499 = !DIFile(filename: "r:/ci/prod/2022.1/rdi_builds/continuous/2022_04_18_3526262/src/shared/hls/clib/include/header_files\5Cap_int_base.h", directory: "R:\5Cci\5Cprod\5C2022.1\5Crdi_builds\5Ccontinuous\5C2022_04_18_3526262\5Csrc\5Cshared")
!500 = !{!501, !515, !516, !517, !522, !526, !529, !532, !535, !538, !541, !544, !547, !550, !553, !556, !560, !564, !567, !570, !573, !576, !579, !584, !588, !593, !594, !598, !601, !604, !607, !610, !613, !616, !619, !622, !625, !628, !631, !634, !637, !642, !645, !648, !651, !654, !657, !660, !661, !664, !667, !670, !673, !676, !679, !682, !685, !689, !690, !691, !692, !693, !696, !697, !700, !703, !704, !707, !708, !709, !710, !711, !712, !713, !716, !717, !718, !725, !726, !729, !1446, !1447, !1448, !1452, !1455, !1458, !1461, !1462, !1463, !1555, !1556, !1557, !1558, !1559, !1560, !1561, !1562, !1563, !1564, !1565}
!501 = !DIDerivedType(tag: DW_TAG_inheritance, scope: !498, baseType: !502)
!502 = distinct !DICompositeType(tag: DW_TAG_structure_type, name: "ssdm_int<17, true>", file: !451, line: 509, size: 32, flags: DIFlagTypePassByValue, elements: !503, templateParams: !513, identifier: "_ZTS8ssdm_intILi17ELb1EE")
!503 = !{!504, !506, !510}
!504 = !DIDerivedType(tag: DW_TAG_member, name: "V", scope: !502, file: !451, line: 511, baseType: !505, size: 17, align: 32)
!505 = !DIBasicType(name: "int17", size: 17, encoding: DW_ATE_signed)
!506 = !DISubprogram(name: "ssdm_int", scope: !502, file: !451, line: 512, type: !507, isLocal: false, isDefinition: false, scopeLine: 512, flags: DIFlagPrototyped, isOptimized: false)
!507 = !DISubroutineType(types: !508)
!508 = !{null, !509}
!509 = !DIDerivedType(tag: DW_TAG_pointer_type, baseType: !502, size: 64, flags: DIFlagArtificial | DIFlagObjectPointer)
!510 = !DISubprogram(name: "ssdm_int", scope: !502, file: !451, line: 513, type: !511, isLocal: false, isDefinition: false, scopeLine: 513, flags: DIFlagPrototyped, isOptimized: false)
!511 = !DISubroutineType(types: !512)
!512 = !{null, !509, !505}
!513 = !{!514, !39}
!514 = !DITemplateValueParameter(name: "_AP_N", type: !38, value: i32 17)
!515 = !DIDerivedType(tag: DW_TAG_member, name: "width", scope: !498, file: !499, line: 130, baseType: !42, flags: DIFlagStaticMember, extraData: i32 17)
!516 = !DIDerivedType(tag: DW_TAG_member, name: "sign_flag", scope: !498, file: !499, line: 131, baseType: !94, flags: DIFlagStaticMember, extraData: i1 true)
!517 = !DISubprogram(name: "countLeadingOnes", linkageName: "_ZNK11ap_int_baseILi17ELb1EE16countLeadingOnesEv", scope: !498, file: !499, line: 110, type: !518, isLocal: false, isDefinition: false, scopeLine: 110, flags: DIFlagPrivate | DIFlagPrototyped, isOptimized: false)
!518 = !DISubroutineType(types: !519)
!519 = !{!38, !520}
!520 = !DIDerivedType(tag: DW_TAG_pointer_type, baseType: !521, size: 64, flags: DIFlagArtificial | DIFlagObjectPointer)
!521 = !DIDerivedType(tag: DW_TAG_const_type, baseType: !498)
!522 = !DISubprogram(name: "ap_int_base", scope: !498, file: !499, line: 175, type: !523, isLocal: false, isDefinition: false, scopeLine: 175, flags: DIFlagPrototyped, isOptimized: false)
!523 = !DISubroutineType(types: !524)
!524 = !{null, !525}
!525 = !DIDerivedType(tag: DW_TAG_pointer_type, baseType: !498, size: 64, flags: DIFlagArtificial | DIFlagObjectPointer)
!526 = !DISubprogram(name: "ap_int_base", scope: !498, file: !499, line: 208, type: !527, isLocal: false, isDefinition: false, scopeLine: 208, flags: DIFlagPrototyped, isOptimized: false)
!527 = !DISubroutineType(types: !528)
!528 = !{null, !525, !94}
!529 = !DISubprogram(name: "ap_int_base", scope: !498, file: !499, line: 209, type: !530, isLocal: false, isDefinition: false, scopeLine: 209, flags: DIFlagPrototyped, isOptimized: false)
!530 = !DISubroutineType(types: !531)
!531 = !{null, !525, !85}
!532 = !DISubprogram(name: "ap_int_base", scope: !498, file: !499, line: 210, type: !533, isLocal: false, isDefinition: false, scopeLine: 210, flags: DIFlagPrototyped, isOptimized: false)
!533 = !DISubroutineType(types: !534)
!534 = !{null, !525, !101}
!535 = !DISubprogram(name: "ap_int_base", scope: !498, file: !499, line: 211, type: !536, isLocal: false, isDefinition: false, scopeLine: 211, flags: DIFlagPrototyped, isOptimized: false)
!536 = !DISubroutineType(types: !537)
!537 = !{null, !525, !105}
!538 = !DISubprogram(name: "ap_int_base", scope: !498, file: !499, line: 212, type: !539, isLocal: false, isDefinition: false, scopeLine: 212, flags: DIFlagPrototyped, isOptimized: false)
!539 = !DISubroutineType(types: !540)
!540 = !{null, !525, !110}
!541 = !DISubprogram(name: "ap_int_base", scope: !498, file: !499, line: 213, type: !542, isLocal: false, isDefinition: false, scopeLine: 213, flags: DIFlagPrototyped, isOptimized: false)
!542 = !DISubroutineType(types: !543)
!543 = !{null, !525, !114}
!544 = !DISubprogram(name: "ap_int_base", scope: !498, file: !499, line: 214, type: !545, isLocal: false, isDefinition: false, scopeLine: 214, flags: DIFlagPrototyped, isOptimized: false)
!545 = !DISubroutineType(types: !546)
!546 = !{null, !525, !42}
!547 = !DISubprogram(name: "ap_int_base", scope: !498, file: !499, line: 215, type: !548, isLocal: false, isDefinition: false, scopeLine: 215, flags: DIFlagPrototyped, isOptimized: false)
!548 = !DISubroutineType(types: !549)
!549 = !{null, !525, !122}
!550 = !DISubprogram(name: "ap_int_base", scope: !498, file: !499, line: 216, type: !551, isLocal: false, isDefinition: false, scopeLine: 216, flags: DIFlagPrototyped, isOptimized: false)
!551 = !DISubroutineType(types: !552)
!552 = !{null, !525, !127}
!553 = !DISubprogram(name: "ap_int_base", scope: !498, file: !499, line: 217, type: !554, isLocal: false, isDefinition: false, scopeLine: 217, flags: DIFlagPrototyped, isOptimized: false)
!554 = !DISubroutineType(types: !555)
!555 = !{null, !525, !132}
!556 = !DISubprogram(name: "ap_int_base", scope: !498, file: !499, line: 218, type: !557, isLocal: false, isDefinition: false, scopeLine: 218, flags: DIFlagPrototyped, isOptimized: false)
!557 = !DISubroutineType(types: !558)
!558 = !{null, !525, !559}
!559 = !DIDerivedType(tag: DW_TAG_const_type, baseType: !435)
!560 = !DISubprogram(name: "ap_int_base", scope: !498, file: !499, line: 219, type: !561, isLocal: false, isDefinition: false, scopeLine: 219, flags: DIFlagPrototyped, isOptimized: false)
!561 = !DISubroutineType(types: !562)
!562 = !{null, !525, !563}
!563 = !DIDerivedType(tag: DW_TAG_const_type, baseType: !440)
!564 = !DISubprogram(name: "ap_int_base", scope: !498, file: !499, line: 224, type: !565, isLocal: false, isDefinition: false, scopeLine: 224, flags: DIFlagPrototyped, isOptimized: false)
!565 = !DISubroutineType(types: !566)
!566 = !{null, !525, !450}
!567 = !DISubprogram(name: "ap_int_base", scope: !498, file: !499, line: 230, type: !568, isLocal: false, isDefinition: false, scopeLine: 230, flags: DIFlagPrototyped, isOptimized: false)
!568 = !DISubroutineType(types: !569)
!569 = !{null, !525, !153}
!570 = !DISubprogram(name: "ap_int_base", scope: !498, file: !499, line: 289, type: !571, isLocal: false, isDefinition: false, scopeLine: 289, flags: DIFlagPrototyped, isOptimized: false)
!571 = !DISubroutineType(types: !572)
!572 = !{null, !525, !149}
!573 = !DISubprogram(name: "ap_int_base", scope: !498, file: !499, line: 385, type: !574, isLocal: false, isDefinition: false, scopeLine: 385, flags: DIFlagPrototyped, isOptimized: false)
!574 = !DISubroutineType(types: !575)
!575 = !{null, !525, !84}
!576 = !DISubprogram(name: "ap_int_base", scope: !498, file: !499, line: 391, type: !577, isLocal: false, isDefinition: false, scopeLine: 391, flags: DIFlagPrototyped, isOptimized: false)
!577 = !DISubroutineType(types: !578)
!578 = !{null, !525, !84, !90}
!579 = !DISubprogram(name: "read", linkageName: "_ZNV11ap_int_baseILi17ELb1EE4readEv", scope: !498, file: !499, line: 413, type: !580, isLocal: false, isDefinition: false, scopeLine: 413, flags: DIFlagPrototyped, isOptimized: false)
!580 = !DISubroutineType(types: !581)
!581 = !{!498, !582}
!582 = !DIDerivedType(tag: DW_TAG_pointer_type, baseType: !583, size: 64, flags: DIFlagArtificial | DIFlagObjectPointer)
!583 = !DIDerivedType(tag: DW_TAG_volatile_type, baseType: !498)
!584 = !DISubprogram(name: "write", linkageName: "_ZNV11ap_int_baseILi17ELb1EE5writeERKS0_", scope: !498, file: !499, line: 420, type: !585, isLocal: false, isDefinition: false, scopeLine: 420, flags: DIFlagPrototyped, isOptimized: false)
!585 = !DISubroutineType(types: !586)
!586 = !{null, !582, !587}
!587 = !DIDerivedType(tag: DW_TAG_reference_type, baseType: !521, size: 64)
!588 = !DISubprogram(name: "operator=", linkageName: "_ZNV11ap_int_baseILi17ELb1EEaSERVKS0_", scope: !498, file: !499, line: 432, type: !589, isLocal: false, isDefinition: false, scopeLine: 432, flags: DIFlagPrototyped, isOptimized: false)
!589 = !DISubroutineType(types: !590)
!590 = !{null, !582, !591}
!591 = !DIDerivedType(tag: DW_TAG_reference_type, baseType: !592, size: 64)
!592 = !DIDerivedType(tag: DW_TAG_const_type, baseType: !583)
!593 = !DISubprogram(name: "operator=", linkageName: "_ZNV11ap_int_baseILi17ELb1EEaSERKS0_", scope: !498, file: !499, line: 442, type: !585, isLocal: false, isDefinition: false, scopeLine: 442, flags: DIFlagPrototyped, isOptimized: false)
!594 = !DISubprogram(name: "operator=", linkageName: "_ZN11ap_int_baseILi17ELb1EEaSERVKS0_", scope: !498, file: !499, line: 459, type: !595, isLocal: false, isDefinition: false, scopeLine: 459, flags: DIFlagPrototyped, isOptimized: false)
!595 = !DISubroutineType(types: !596)
!596 = !{!597, !525, !591}
!597 = !DIDerivedType(tag: DW_TAG_reference_type, baseType: !498, size: 64)
!598 = !DISubprogram(name: "operator=", linkageName: "_ZN11ap_int_baseILi17ELb1EEaSERKS0_", scope: !498, file: !499, line: 465, type: !599, isLocal: false, isDefinition: false, scopeLine: 465, flags: DIFlagPrototyped, isOptimized: false)
!599 = !DISubroutineType(types: !600)
!600 = !{!597, !525, !587}
!601 = !DISubprogram(name: "operator=", linkageName: "_ZN11ap_int_baseILi17ELb1EEaSEb", scope: !498, file: !499, line: 479, type: !602, isLocal: false, isDefinition: false, scopeLine: 479, flags: DIFlagPrototyped, isOptimized: false)
!602 = !DISubroutineType(types: !603)
!603 = !{!597, !525, !40}
!604 = !DISubprogram(name: "operator=", linkageName: "_ZN11ap_int_baseILi17ELb1EEaSEc", scope: !498, file: !499, line: 480, type: !605, isLocal: false, isDefinition: false, scopeLine: 480, flags: DIFlagPrototyped, isOptimized: false)
!605 = !DISubroutineType(types: !606)
!606 = !{!597, !525, !86}
!607 = !DISubprogram(name: "operator=", linkageName: "_ZN11ap_int_baseILi17ELb1EEaSEa", scope: !498, file: !499, line: 481, type: !608, isLocal: false, isDefinition: false, scopeLine: 481, flags: DIFlagPrototyped, isOptimized: false)
!608 = !DISubroutineType(types: !609)
!609 = !{!597, !525, !90}
!610 = !DISubprogram(name: "operator=", linkageName: "_ZN11ap_int_baseILi17ELb1EEaSEh", scope: !498, file: !499, line: 482, type: !611, isLocal: false, isDefinition: false, scopeLine: 482, flags: DIFlagPrototyped, isOptimized: false)
!611 = !DISubroutineType(types: !612)
!612 = !{!597, !525, !106}
!613 = !DISubprogram(name: "operator=", linkageName: "_ZN11ap_int_baseILi17ELb1EEaSEs", scope: !498, file: !499, line: 483, type: !614, isLocal: false, isDefinition: false, scopeLine: 483, flags: DIFlagPrototyped, isOptimized: false)
!614 = !DISubroutineType(types: !615)
!615 = !{!597, !525, !28}
!616 = !DISubprogram(name: "operator=", linkageName: "_ZN11ap_int_baseILi17ELb1EEaSEt", scope: !498, file: !499, line: 484, type: !617, isLocal: false, isDefinition: false, scopeLine: 484, flags: DIFlagPrototyped, isOptimized: false)
!617 = !DISubroutineType(types: !618)
!618 = !{!597, !525, !115}
!619 = !DISubprogram(name: "operator=", linkageName: "_ZN11ap_int_baseILi17ELb1EEaSEi", scope: !498, file: !499, line: 485, type: !620, isLocal: false, isDefinition: false, scopeLine: 485, flags: DIFlagPrototyped, isOptimized: false)
!620 = !DISubroutineType(types: !621)
!621 = !{!597, !525, !38}
!622 = !DISubprogram(name: "operator=", linkageName: "_ZN11ap_int_baseILi17ELb1EEaSEj", scope: !498, file: !499, line: 486, type: !623, isLocal: false, isDefinition: false, scopeLine: 486, flags: DIFlagPrototyped, isOptimized: false)
!623 = !DISubroutineType(types: !624)
!624 = !{!597, !525, !123}
!625 = !DISubprogram(name: "operator=", linkageName: "_ZN11ap_int_baseILi17ELb1EEaSEl", scope: !498, file: !499, line: 487, type: !626, isLocal: false, isDefinition: false, scopeLine: 487, flags: DIFlagPrototyped, isOptimized: false)
!626 = !DISubroutineType(types: !627)
!627 = !{!597, !525, !128}
!628 = !DISubprogram(name: "operator=", linkageName: "_ZN11ap_int_baseILi17ELb1EEaSEm", scope: !498, file: !499, line: 488, type: !629, isLocal: false, isDefinition: false, scopeLine: 488, flags: DIFlagPrototyped, isOptimized: false)
!629 = !DISubroutineType(types: !630)
!630 = !{!597, !525, !133}
!631 = !DISubprogram(name: "operator=", linkageName: "_ZN11ap_int_baseILi17ELb1EEaSEx", scope: !498, file: !499, line: 489, type: !632, isLocal: false, isDefinition: false, scopeLine: 489, flags: DIFlagPrototyped, isOptimized: false)
!632 = !DISubroutineType(types: !633)
!633 = !{!597, !525, !435}
!634 = !DISubprogram(name: "operator=", linkageName: "_ZN11ap_int_baseILi17ELb1EEaSEy", scope: !498, file: !499, line: 490, type: !635, isLocal: false, isDefinition: false, scopeLine: 490, flags: DIFlagPrototyped, isOptimized: false)
!635 = !DISubroutineType(types: !636)
!636 = !{!597, !525, !440}
!637 = !DISubprogram(name: "operator long long", linkageName: "_ZNK11ap_int_baseILi17ELb1EEcvxEv", scope: !498, file: !499, line: 541, type: !638, isLocal: false, isDefinition: false, scopeLine: 541, flags: DIFlagPrototyped, isOptimized: false)
!638 = !DISubroutineType(types: !639)
!639 = !{!640, !520}
!640 = !DIDerivedType(tag: DW_TAG_typedef, name: "RetType", scope: !498, file: !499, line: 128, baseType: !641)
!641 = !DIDerivedType(tag: DW_TAG_typedef, name: "Type", scope: !301, file: !499, line: 46, baseType: !435)
!642 = !DISubprogram(name: "to_bool", linkageName: "_ZNK11ap_int_baseILi17ELb1EE7to_boolEv", scope: !498, file: !499, line: 546, type: !643, isLocal: false, isDefinition: false, scopeLine: 546, flags: DIFlagPrototyped, isOptimized: false)
!643 = !DISubroutineType(types: !644)
!644 = !{!40, !520}
!645 = !DISubprogram(name: "to_char", linkageName: "_ZNK11ap_int_baseILi17ELb1EE7to_charEv", scope: !498, file: !499, line: 547, type: !646, isLocal: false, isDefinition: false, scopeLine: 547, flags: DIFlagPrototyped, isOptimized: false)
!646 = !DISubroutineType(types: !647)
!647 = !{!86, !520}
!648 = !DISubprogram(name: "to_schar", linkageName: "_ZNK11ap_int_baseILi17ELb1EE8to_scharEv", scope: !498, file: !499, line: 548, type: !649, isLocal: false, isDefinition: false, scopeLine: 548, flags: DIFlagPrototyped, isOptimized: false)
!649 = !DISubroutineType(types: !650)
!650 = !{!90, !520}
!651 = !DISubprogram(name: "to_uchar", linkageName: "_ZNK11ap_int_baseILi17ELb1EE8to_ucharEv", scope: !498, file: !499, line: 549, type: !652, isLocal: false, isDefinition: false, scopeLine: 549, flags: DIFlagPrototyped, isOptimized: false)
!652 = !DISubroutineType(types: !653)
!653 = !{!106, !520}
!654 = !DISubprogram(name: "to_short", linkageName: "_ZNK11ap_int_baseILi17ELb1EE8to_shortEv", scope: !498, file: !499, line: 550, type: !655, isLocal: false, isDefinition: false, scopeLine: 550, flags: DIFlagPrototyped, isOptimized: false)
!655 = !DISubroutineType(types: !656)
!656 = !{!28, !520}
!657 = !DISubprogram(name: "to_ushort", linkageName: "_ZNK11ap_int_baseILi17ELb1EE9to_ushortEv", scope: !498, file: !499, line: 551, type: !658, isLocal: false, isDefinition: false, scopeLine: 551, flags: DIFlagPrototyped, isOptimized: false)
!658 = !DISubroutineType(types: !659)
!659 = !{!115, !520}
!660 = !DISubprogram(name: "to_int", linkageName: "_ZNK11ap_int_baseILi17ELb1EE6to_intEv", scope: !498, file: !499, line: 552, type: !518, isLocal: false, isDefinition: false, scopeLine: 552, flags: DIFlagPrototyped, isOptimized: false)
!661 = !DISubprogram(name: "to_uint", linkageName: "_ZNK11ap_int_baseILi17ELb1EE7to_uintEv", scope: !498, file: !499, line: 553, type: !662, isLocal: false, isDefinition: false, scopeLine: 553, flags: DIFlagPrototyped, isOptimized: false)
!662 = !DISubroutineType(types: !663)
!663 = !{!123, !520}
!664 = !DISubprogram(name: "to_long", linkageName: "_ZNK11ap_int_baseILi17ELb1EE7to_longEv", scope: !498, file: !499, line: 554, type: !665, isLocal: false, isDefinition: false, scopeLine: 554, flags: DIFlagPrototyped, isOptimized: false)
!665 = !DISubroutineType(types: !666)
!666 = !{!128, !520}
!667 = !DISubprogram(name: "to_ulong", linkageName: "_ZNK11ap_int_baseILi17ELb1EE8to_ulongEv", scope: !498, file: !499, line: 555, type: !668, isLocal: false, isDefinition: false, scopeLine: 555, flags: DIFlagPrototyped, isOptimized: false)
!668 = !DISubroutineType(types: !669)
!669 = !{!133, !520}
!670 = !DISubprogram(name: "to_int64", linkageName: "_ZNK11ap_int_baseILi17ELb1EE8to_int64Ev", scope: !498, file: !499, line: 556, type: !671, isLocal: false, isDefinition: false, scopeLine: 556, flags: DIFlagPrototyped, isOptimized: false)
!671 = !DISubroutineType(types: !672)
!672 = !{!435, !520}
!673 = !DISubprogram(name: "to_uint64", linkageName: "_ZNK11ap_int_baseILi17ELb1EE9to_uint64Ev", scope: !498, file: !499, line: 557, type: !674, isLocal: false, isDefinition: false, scopeLine: 557, flags: DIFlagPrototyped, isOptimized: false)
!674 = !DISubroutineType(types: !675)
!675 = !{!440, !520}
!676 = !DISubprogram(name: "to_half", linkageName: "_ZNK11ap_int_baseILi17ELb1EE7to_halfEv", scope: !498, file: !499, line: 558, type: !677, isLocal: false, isDefinition: false, scopeLine: 558, flags: DIFlagPrototyped, isOptimized: false)
!677 = !DISubroutineType(types: !678)
!678 = !{!450, !520}
!679 = !DISubprogram(name: "to_float", linkageName: "_ZNK11ap_int_baseILi17ELb1EE8to_floatEv", scope: !498, file: !499, line: 559, type: !680, isLocal: false, isDefinition: false, scopeLine: 559, flags: DIFlagPrototyped, isOptimized: false)
!680 = !DISubroutineType(types: !681)
!681 = !{!153, !520}
!682 = !DISubprogram(name: "to_double", linkageName: "_ZNK11ap_int_baseILi17ELb1EE9to_doubleEv", scope: !498, file: !499, line: 560, type: !683, isLocal: false, isDefinition: false, scopeLine: 560, flags: DIFlagPrototyped, isOptimized: false)
!683 = !DISubroutineType(types: !684)
!684 = !{!149, !520}
!685 = !DISubprogram(name: "length", linkageName: "_ZNVK11ap_int_baseILi17ELb1EE6lengthEv", scope: !498, file: !499, line: 584, type: !686, isLocal: false, isDefinition: false, scopeLine: 584, flags: DIFlagPrototyped, isOptimized: false)
!686 = !DISubroutineType(types: !687)
!687 = !{!38, !688}
!688 = !DIDerivedType(tag: DW_TAG_pointer_type, baseType: !592, size: 64, flags: DIFlagArtificial | DIFlagObjectPointer)
!689 = !DISubprogram(name: "length", linkageName: "_ZNK11ap_int_baseILi17ELb1EE6lengthEv", scope: !498, file: !499, line: 585, type: !518, isLocal: false, isDefinition: false, scopeLine: 585, flags: DIFlagPrototyped, isOptimized: false)
!690 = !DISubprogram(name: "iszero", linkageName: "_ZNK11ap_int_baseILi17ELb1EE6iszeroEv", scope: !498, file: !499, line: 588, type: !643, isLocal: false, isDefinition: false, scopeLine: 588, flags: DIFlagPrototyped, isOptimized: false)
!691 = !DISubprogram(name: "is_zero", linkageName: "_ZNK11ap_int_baseILi17ELb1EE7is_zeroEv", scope: !498, file: !499, line: 591, type: !643, isLocal: false, isDefinition: false, scopeLine: 591, flags: DIFlagPrototyped, isOptimized: false)
!692 = !DISubprogram(name: "sign", linkageName: "_ZNK11ap_int_baseILi17ELb1EE4signEv", scope: !498, file: !499, line: 594, type: !643, isLocal: false, isDefinition: false, scopeLine: 594, flags: DIFlagPrototyped, isOptimized: false)
!693 = !DISubprogram(name: "clear", linkageName: "_ZN11ap_int_baseILi17ELb1EE5clearEi", scope: !498, file: !499, line: 603, type: !694, isLocal: false, isDefinition: false, scopeLine: 603, flags: DIFlagPrototyped, isOptimized: false)
!694 = !DISubroutineType(types: !695)
!695 = !{null, !525, !38}
!696 = !DISubprogram(name: "invert", linkageName: "_ZN11ap_int_baseILi17ELb1EE6invertEi", scope: !498, file: !499, line: 609, type: !694, isLocal: false, isDefinition: false, scopeLine: 609, flags: DIFlagPrototyped, isOptimized: false)
!697 = !DISubprogram(name: "test", linkageName: "_ZNK11ap_int_baseILi17ELb1EE4testEi", scope: !498, file: !499, line: 618, type: !698, isLocal: false, isDefinition: false, scopeLine: 618, flags: DIFlagPrototyped, isOptimized: false)
!698 = !DISubroutineType(types: !699)
!699 = !{!40, !520, !38}
!700 = !DISubprogram(name: "get", linkageName: "_ZN11ap_int_baseILi17ELb1EE3getEv", scope: !498, file: !499, line: 624, type: !701, isLocal: false, isDefinition: false, scopeLine: 624, flags: DIFlagPrototyped, isOptimized: false)
!701 = !DISubroutineType(types: !702)
!702 = !{!597, !525}
!703 = !DISubprogram(name: "set", linkageName: "_ZN11ap_int_baseILi17ELb1EE3setEi", scope: !498, file: !499, line: 627, type: !694, isLocal: false, isDefinition: false, scopeLine: 627, flags: DIFlagPrototyped, isOptimized: false)
!704 = !DISubprogram(name: "set", linkageName: "_ZN11ap_int_baseILi17ELb1EE3setEib", scope: !498, file: !499, line: 633, type: !705, isLocal: false, isDefinition: false, scopeLine: 633, flags: DIFlagPrototyped, isOptimized: false)
!705 = !DISubroutineType(types: !706)
!706 = !{null, !525, !38, !40}
!707 = !DISubprogram(name: "lrotate", linkageName: "_ZN11ap_int_baseILi17ELb1EE7lrotateEi", scope: !498, file: !499, line: 640, type: !620, isLocal: false, isDefinition: false, scopeLine: 640, flags: DIFlagPrototyped, isOptimized: false)
!708 = !DISubprogram(name: "rrotate", linkageName: "_ZN11ap_int_baseILi17ELb1EE7rrotateEi", scope: !498, file: !499, line: 655, type: !620, isLocal: false, isDefinition: false, scopeLine: 655, flags: DIFlagPrototyped, isOptimized: false)
!709 = !DISubprogram(name: "reverse", linkageName: "_ZN11ap_int_baseILi17ELb1EE7reverseEv", scope: !498, file: !499, line: 670, type: !701, isLocal: false, isDefinition: false, scopeLine: 670, flags: DIFlagPrototyped, isOptimized: false)
!710 = !DISubprogram(name: "set_bit", linkageName: "_ZN11ap_int_baseILi17ELb1EE7set_bitEib", scope: !498, file: !499, line: 676, type: !705, isLocal: false, isDefinition: false, scopeLine: 676, flags: DIFlagPrototyped, isOptimized: false)
!711 = !DISubprogram(name: "get_bit", linkageName: "_ZNK11ap_int_baseILi17ELb1EE7get_bitEi", scope: !498, file: !499, line: 681, type: !698, isLocal: false, isDefinition: false, scopeLine: 681, flags: DIFlagPrototyped, isOptimized: false)
!712 = !DISubprogram(name: "b_not", linkageName: "_ZN11ap_int_baseILi17ELb1EE5b_notEv", scope: !498, file: !499, line: 686, type: !523, isLocal: false, isDefinition: false, scopeLine: 686, flags: DIFlagPrototyped, isOptimized: false)
!713 = !DISubprogram(name: "checkOverflowCsim", linkageName: "_ZNK11ap_int_baseILi17ELb1EE17checkOverflowCsimEibb", scope: !498, file: !499, line: 760, type: !714, isLocal: false, isDefinition: false, scopeLine: 760, flags: DIFlagPrototyped, isOptimized: false)
!714 = !DISubroutineType(types: !715)
!715 = !{!40, !520, !38, !40, !40}
!716 = !DISubprogram(name: "operator++", linkageName: "_ZN11ap_int_baseILi17ELb1EEppEv", scope: !498, file: !499, line: 865, type: !701, isLocal: false, isDefinition: false, scopeLine: 865, flags: DIFlagPrototyped, isOptimized: false)
!717 = !DISubprogram(name: "operator--", linkageName: "_ZN11ap_int_baseILi17ELb1EEmmEv", scope: !498, file: !499, line: 869, type: !701, isLocal: false, isDefinition: false, scopeLine: 869, flags: DIFlagPrototyped, isOptimized: false)
!718 = !DISubprogram(name: "operator++", linkageName: "_ZN11ap_int_baseILi17ELb1EEppEi", scope: !498, file: !499, line: 877, type: !719, isLocal: false, isDefinition: false, scopeLine: 877, flags: DIFlagPrototyped, isOptimized: false)
!719 = !DISubroutineType(types: !720)
!720 = !{!721, !525, !38}
!721 = !DIDerivedType(tag: DW_TAG_const_type, baseType: !722)
!722 = !DIDerivedType(tag: DW_TAG_typedef, name: "arg1", scope: !723, file: !499, line: 167, baseType: !724)
!723 = distinct !DICompositeType(tag: DW_TAG_structure_type, name: "RType<17, true>", scope: !498, file: !499, line: 134, size: 8, flags: DIFlagTypePassByValue, elements: !4, templateParams: !493, identifier: "_ZTSN11ap_int_baseILi17ELb1EE5RTypeILi17ELb1EEE")
!724 = !DIDerivedType(tag: DW_TAG_typedef, name: "type", scope: !492, file: !499, line: 103, baseType: !495)
!725 = !DISubprogram(name: "operator--", linkageName: "_ZN11ap_int_baseILi17ELb1EEmmEi", scope: !498, file: !499, line: 882, type: !719, isLocal: false, isDefinition: false, scopeLine: 882, flags: DIFlagPrototyped, isOptimized: false)
!726 = !DISubprogram(name: "operator+", linkageName: "_ZNK11ap_int_baseILi17ELb1EEpsEv", scope: !498, file: !499, line: 891, type: !727, isLocal: false, isDefinition: false, scopeLine: 891, flags: DIFlagPrototyped, isOptimized: false)
!727 = !DISubroutineType(types: !728)
!728 = !{!722, !520}
!729 = !DISubprogram(name: "operator-", linkageName: "_ZNK11ap_int_baseILi17ELb1EEngEv", scope: !498, file: !499, line: 894, type: !730, isLocal: false, isDefinition: false, scopeLine: 894, flags: DIFlagPrototyped, isOptimized: false)
!730 = !DISubroutineType(types: !731)
!731 = !{!732, !520}
!732 = !DIDerivedType(tag: DW_TAG_typedef, name: "minus", scope: !733, file: !499, line: 163, baseType: !734)
!733 = distinct !DICompositeType(tag: DW_TAG_structure_type, name: "RType<1, false>", scope: !498, file: !499, line: 134, size: 8, flags: DIFlagTypePassByValue, elements: !4, templateParams: !488, identifier: "_ZTSN11ap_int_baseILi17ELb1EE5RTypeILi1ELb0EEE")
!734 = !DIDerivedType(tag: DW_TAG_typedef, name: "type", scope: !735, file: !499, line: 103, baseType: !738)
!735 = distinct !DICompositeType(tag: DW_TAG_structure_type, name: "_ap_int_factory<18, true>", file: !499, line: 103, size: 8, flags: DIFlagTypePassByValue, elements: !4, templateParams: !736, identifier: "_ZTS15_ap_int_factoryILi18ELb1EE")
!736 = !{!737, !388}
!737 = !DITemplateValueParameter(name: "_AP_W2", type: !38, value: i32 18)
!738 = distinct !DICompositeType(tag: DW_TAG_structure_type, name: "ap_int<18>", file: !392, line: 18, size: 32, flags: DIFlagTypePassByValue, elements: !739, templateParams: !1445, identifier: "_ZTS6ap_intILi18EE")
!739 = !{!740, !1367, !1371, !1375, !1378, !1381, !1384, !1387, !1390, !1393, !1396, !1399, !1402, !1405, !1408, !1411, !1414, !1417, !1420, !1423, !1426, !1432, !1438, !1442}
!740 = !DIDerivedType(tag: DW_TAG_inheritance, scope: !738, baseType: !741)
!741 = distinct !DICompositeType(tag: DW_TAG_structure_type, name: "ap_int_base<18, true>", file: !499, line: 108, size: 32, flags: DIFlagTypePassByValue, elements: !742, templateParams: !1365, identifier: "_ZTS11ap_int_baseILi18ELb1EE")
!742 = !{!743, !757, !758, !759, !764, !768, !771, !774, !777, !780, !783, !786, !789, !792, !795, !798, !801, !804, !807, !810, !813, !816, !819, !824, !828, !833, !834, !838, !841, !844, !847, !850, !853, !856, !859, !862, !865, !868, !871, !874, !877, !881, !884, !887, !890, !893, !896, !899, !900, !903, !906, !909, !912, !915, !918, !921, !924, !928, !929, !930, !931, !932, !935, !936, !939, !942, !943, !946, !947, !948, !949, !950, !951, !952, !955, !956, !957, !963, !964, !967, !1331, !1332, !1333, !1337, !1340, !1343, !1346, !1347, !1348, !1352, !1353, !1354, !1355, !1356, !1357, !1358, !1359, !1360, !1361, !1362}
!743 = !DIDerivedType(tag: DW_TAG_inheritance, scope: !741, baseType: !744)
!744 = distinct !DICompositeType(tag: DW_TAG_structure_type, name: "ssdm_int<18, true>", file: !451, line: 509, size: 32, flags: DIFlagTypePassByValue, elements: !745, templateParams: !755, identifier: "_ZTS8ssdm_intILi18ELb1EE")
!745 = !{!746, !748, !752}
!746 = !DIDerivedType(tag: DW_TAG_member, name: "V", scope: !744, file: !451, line: 511, baseType: !747, size: 18, align: 32)
!747 = !DIBasicType(name: "int18", size: 18, encoding: DW_ATE_signed)
!748 = !DISubprogram(name: "ssdm_int", scope: !744, file: !451, line: 512, type: !749, isLocal: false, isDefinition: false, scopeLine: 512, flags: DIFlagPrototyped, isOptimized: false)
!749 = !DISubroutineType(types: !750)
!750 = !{null, !751}
!751 = !DIDerivedType(tag: DW_TAG_pointer_type, baseType: !744, size: 64, flags: DIFlagArtificial | DIFlagObjectPointer)
!752 = !DISubprogram(name: "ssdm_int", scope: !744, file: !451, line: 513, type: !753, isLocal: false, isDefinition: false, scopeLine: 513, flags: DIFlagPrototyped, isOptimized: false)
!753 = !DISubroutineType(types: !754)
!754 = !{null, !751, !747}
!755 = !{!756, !39}
!756 = !DITemplateValueParameter(name: "_AP_N", type: !38, value: i32 18)
!757 = !DIDerivedType(tag: DW_TAG_member, name: "width", scope: !741, file: !499, line: 130, baseType: !42, flags: DIFlagStaticMember, extraData: i32 18)
!758 = !DIDerivedType(tag: DW_TAG_member, name: "sign_flag", scope: !741, file: !499, line: 131, baseType: !94, flags: DIFlagStaticMember, extraData: i1 true)
!759 = !DISubprogram(name: "countLeadingOnes", linkageName: "_ZNK11ap_int_baseILi18ELb1EE16countLeadingOnesEv", scope: !741, file: !499, line: 110, type: !760, isLocal: false, isDefinition: false, scopeLine: 110, flags: DIFlagPrivate | DIFlagPrototyped, isOptimized: false)
!760 = !DISubroutineType(types: !761)
!761 = !{!38, !762}
!762 = !DIDerivedType(tag: DW_TAG_pointer_type, baseType: !763, size: 64, flags: DIFlagArtificial | DIFlagObjectPointer)
!763 = !DIDerivedType(tag: DW_TAG_const_type, baseType: !741)
!764 = !DISubprogram(name: "ap_int_base", scope: !741, file: !499, line: 175, type: !765, isLocal: false, isDefinition: false, scopeLine: 175, flags: DIFlagPrototyped, isOptimized: false)
!765 = !DISubroutineType(types: !766)
!766 = !{null, !767}
!767 = !DIDerivedType(tag: DW_TAG_pointer_type, baseType: !741, size: 64, flags: DIFlagArtificial | DIFlagObjectPointer)
!768 = !DISubprogram(name: "ap_int_base", scope: !741, file: !499, line: 208, type: !769, isLocal: false, isDefinition: false, scopeLine: 208, flags: DIFlagPrototyped, isOptimized: false)
!769 = !DISubroutineType(types: !770)
!770 = !{null, !767, !94}
!771 = !DISubprogram(name: "ap_int_base", scope: !741, file: !499, line: 209, type: !772, isLocal: false, isDefinition: false, scopeLine: 209, flags: DIFlagPrototyped, isOptimized: false)
!772 = !DISubroutineType(types: !773)
!773 = !{null, !767, !85}
!774 = !DISubprogram(name: "ap_int_base", scope: !741, file: !499, line: 210, type: !775, isLocal: false, isDefinition: false, scopeLine: 210, flags: DIFlagPrototyped, isOptimized: false)
!775 = !DISubroutineType(types: !776)
!776 = !{null, !767, !101}
!777 = !DISubprogram(name: "ap_int_base", scope: !741, file: !499, line: 211, type: !778, isLocal: false, isDefinition: false, scopeLine: 211, flags: DIFlagPrototyped, isOptimized: false)
!778 = !DISubroutineType(types: !779)
!779 = !{null, !767, !105}
!780 = !DISubprogram(name: "ap_int_base", scope: !741, file: !499, line: 212, type: !781, isLocal: false, isDefinition: false, scopeLine: 212, flags: DIFlagPrototyped, isOptimized: false)
!781 = !DISubroutineType(types: !782)
!782 = !{null, !767, !110}
!783 = !DISubprogram(name: "ap_int_base", scope: !741, file: !499, line: 213, type: !784, isLocal: false, isDefinition: false, scopeLine: 213, flags: DIFlagPrototyped, isOptimized: false)
!784 = !DISubroutineType(types: !785)
!785 = !{null, !767, !114}
!786 = !DISubprogram(name: "ap_int_base", scope: !741, file: !499, line: 214, type: !787, isLocal: false, isDefinition: false, scopeLine: 214, flags: DIFlagPrototyped, isOptimized: false)
!787 = !DISubroutineType(types: !788)
!788 = !{null, !767, !42}
!789 = !DISubprogram(name: "ap_int_base", scope: !741, file: !499, line: 215, type: !790, isLocal: false, isDefinition: false, scopeLine: 215, flags: DIFlagPrototyped, isOptimized: false)
!790 = !DISubroutineType(types: !791)
!791 = !{null, !767, !122}
!792 = !DISubprogram(name: "ap_int_base", scope: !741, file: !499, line: 216, type: !793, isLocal: false, isDefinition: false, scopeLine: 216, flags: DIFlagPrototyped, isOptimized: false)
!793 = !DISubroutineType(types: !794)
!794 = !{null, !767, !127}
!795 = !DISubprogram(name: "ap_int_base", scope: !741, file: !499, line: 217, type: !796, isLocal: false, isDefinition: false, scopeLine: 217, flags: DIFlagPrototyped, isOptimized: false)
!796 = !DISubroutineType(types: !797)
!797 = !{null, !767, !132}
!798 = !DISubprogram(name: "ap_int_base", scope: !741, file: !499, line: 218, type: !799, isLocal: false, isDefinition: false, scopeLine: 218, flags: DIFlagPrototyped, isOptimized: false)
!799 = !DISubroutineType(types: !800)
!800 = !{null, !767, !559}
!801 = !DISubprogram(name: "ap_int_base", scope: !741, file: !499, line: 219, type: !802, isLocal: false, isDefinition: false, scopeLine: 219, flags: DIFlagPrototyped, isOptimized: false)
!802 = !DISubroutineType(types: !803)
!803 = !{null, !767, !563}
!804 = !DISubprogram(name: "ap_int_base", scope: !741, file: !499, line: 224, type: !805, isLocal: false, isDefinition: false, scopeLine: 224, flags: DIFlagPrototyped, isOptimized: false)
!805 = !DISubroutineType(types: !806)
!806 = !{null, !767, !450}
!807 = !DISubprogram(name: "ap_int_base", scope: !741, file: !499, line: 230, type: !808, isLocal: false, isDefinition: false, scopeLine: 230, flags: DIFlagPrototyped, isOptimized: false)
!808 = !DISubroutineType(types: !809)
!809 = !{null, !767, !153}
!810 = !DISubprogram(name: "ap_int_base", scope: !741, file: !499, line: 289, type: !811, isLocal: false, isDefinition: false, scopeLine: 289, flags: DIFlagPrototyped, isOptimized: false)
!811 = !DISubroutineType(types: !812)
!812 = !{null, !767, !149}
!813 = !DISubprogram(name: "ap_int_base", scope: !741, file: !499, line: 385, type: !814, isLocal: false, isDefinition: false, scopeLine: 385, flags: DIFlagPrototyped, isOptimized: false)
!814 = !DISubroutineType(types: !815)
!815 = !{null, !767, !84}
!816 = !DISubprogram(name: "ap_int_base", scope: !741, file: !499, line: 391, type: !817, isLocal: false, isDefinition: false, scopeLine: 391, flags: DIFlagPrototyped, isOptimized: false)
!817 = !DISubroutineType(types: !818)
!818 = !{null, !767, !84, !90}
!819 = !DISubprogram(name: "read", linkageName: "_ZNV11ap_int_baseILi18ELb1EE4readEv", scope: !741, file: !499, line: 413, type: !820, isLocal: false, isDefinition: false, scopeLine: 413, flags: DIFlagPrototyped, isOptimized: false)
!820 = !DISubroutineType(types: !821)
!821 = !{!741, !822}
!822 = !DIDerivedType(tag: DW_TAG_pointer_type, baseType: !823, size: 64, flags: DIFlagArtificial | DIFlagObjectPointer)
!823 = !DIDerivedType(tag: DW_TAG_volatile_type, baseType: !741)
!824 = !DISubprogram(name: "write", linkageName: "_ZNV11ap_int_baseILi18ELb1EE5writeERKS0_", scope: !741, file: !499, line: 420, type: !825, isLocal: false, isDefinition: false, scopeLine: 420, flags: DIFlagPrototyped, isOptimized: false)
!825 = !DISubroutineType(types: !826)
!826 = !{null, !822, !827}
!827 = !DIDerivedType(tag: DW_TAG_reference_type, baseType: !763, size: 64)
!828 = !DISubprogram(name: "operator=", linkageName: "_ZNV11ap_int_baseILi18ELb1EEaSERVKS0_", scope: !741, file: !499, line: 432, type: !829, isLocal: false, isDefinition: false, scopeLine: 432, flags: DIFlagPrototyped, isOptimized: false)
!829 = !DISubroutineType(types: !830)
!830 = !{null, !822, !831}
!831 = !DIDerivedType(tag: DW_TAG_reference_type, baseType: !832, size: 64)
!832 = !DIDerivedType(tag: DW_TAG_const_type, baseType: !823)
!833 = !DISubprogram(name: "operator=", linkageName: "_ZNV11ap_int_baseILi18ELb1EEaSERKS0_", scope: !741, file: !499, line: 442, type: !825, isLocal: false, isDefinition: false, scopeLine: 442, flags: DIFlagPrototyped, isOptimized: false)
!834 = !DISubprogram(name: "operator=", linkageName: "_ZN11ap_int_baseILi18ELb1EEaSERVKS0_", scope: !741, file: !499, line: 459, type: !835, isLocal: false, isDefinition: false, scopeLine: 459, flags: DIFlagPrototyped, isOptimized: false)
!835 = !DISubroutineType(types: !836)
!836 = !{!837, !767, !831}
!837 = !DIDerivedType(tag: DW_TAG_reference_type, baseType: !741, size: 64)
!838 = !DISubprogram(name: "operator=", linkageName: "_ZN11ap_int_baseILi18ELb1EEaSERKS0_", scope: !741, file: !499, line: 465, type: !839, isLocal: false, isDefinition: false, scopeLine: 465, flags: DIFlagPrototyped, isOptimized: false)
!839 = !DISubroutineType(types: !840)
!840 = !{!837, !767, !827}
!841 = !DISubprogram(name: "operator=", linkageName: "_ZN11ap_int_baseILi18ELb1EEaSEb", scope: !741, file: !499, line: 479, type: !842, isLocal: false, isDefinition: false, scopeLine: 479, flags: DIFlagPrototyped, isOptimized: false)
!842 = !DISubroutineType(types: !843)
!843 = !{!837, !767, !40}
!844 = !DISubprogram(name: "operator=", linkageName: "_ZN11ap_int_baseILi18ELb1EEaSEc", scope: !741, file: !499, line: 480, type: !845, isLocal: false, isDefinition: false, scopeLine: 480, flags: DIFlagPrototyped, isOptimized: false)
!845 = !DISubroutineType(types: !846)
!846 = !{!837, !767, !86}
!847 = !DISubprogram(name: "operator=", linkageName: "_ZN11ap_int_baseILi18ELb1EEaSEa", scope: !741, file: !499, line: 481, type: !848, isLocal: false, isDefinition: false, scopeLine: 481, flags: DIFlagPrototyped, isOptimized: false)
!848 = !DISubroutineType(types: !849)
!849 = !{!837, !767, !90}
!850 = !DISubprogram(name: "operator=", linkageName: "_ZN11ap_int_baseILi18ELb1EEaSEh", scope: !741, file: !499, line: 482, type: !851, isLocal: false, isDefinition: false, scopeLine: 482, flags: DIFlagPrototyped, isOptimized: false)
!851 = !DISubroutineType(types: !852)
!852 = !{!837, !767, !106}
!853 = !DISubprogram(name: "operator=", linkageName: "_ZN11ap_int_baseILi18ELb1EEaSEs", scope: !741, file: !499, line: 483, type: !854, isLocal: false, isDefinition: false, scopeLine: 483, flags: DIFlagPrototyped, isOptimized: false)
!854 = !DISubroutineType(types: !855)
!855 = !{!837, !767, !28}
!856 = !DISubprogram(name: "operator=", linkageName: "_ZN11ap_int_baseILi18ELb1EEaSEt", scope: !741, file: !499, line: 484, type: !857, isLocal: false, isDefinition: false, scopeLine: 484, flags: DIFlagPrototyped, isOptimized: false)
!857 = !DISubroutineType(types: !858)
!858 = !{!837, !767, !115}
!859 = !DISubprogram(name: "operator=", linkageName: "_ZN11ap_int_baseILi18ELb1EEaSEi", scope: !741, file: !499, line: 485, type: !860, isLocal: false, isDefinition: false, scopeLine: 485, flags: DIFlagPrototyped, isOptimized: false)
!860 = !DISubroutineType(types: !861)
!861 = !{!837, !767, !38}
!862 = !DISubprogram(name: "operator=", linkageName: "_ZN11ap_int_baseILi18ELb1EEaSEj", scope: !741, file: !499, line: 486, type: !863, isLocal: false, isDefinition: false, scopeLine: 486, flags: DIFlagPrototyped, isOptimized: false)
!863 = !DISubroutineType(types: !864)
!864 = !{!837, !767, !123}
!865 = !DISubprogram(name: "operator=", linkageName: "_ZN11ap_int_baseILi18ELb1EEaSEl", scope: !741, file: !499, line: 487, type: !866, isLocal: false, isDefinition: false, scopeLine: 487, flags: DIFlagPrototyped, isOptimized: false)
!866 = !DISubroutineType(types: !867)
!867 = !{!837, !767, !128}
!868 = !DISubprogram(name: "operator=", linkageName: "_ZN11ap_int_baseILi18ELb1EEaSEm", scope: !741, file: !499, line: 488, type: !869, isLocal: false, isDefinition: false, scopeLine: 488, flags: DIFlagPrototyped, isOptimized: false)
!869 = !DISubroutineType(types: !870)
!870 = !{!837, !767, !133}
!871 = !DISubprogram(name: "operator=", linkageName: "_ZN11ap_int_baseILi18ELb1EEaSEx", scope: !741, file: !499, line: 489, type: !872, isLocal: false, isDefinition: false, scopeLine: 489, flags: DIFlagPrototyped, isOptimized: false)
!872 = !DISubroutineType(types: !873)
!873 = !{!837, !767, !435}
!874 = !DISubprogram(name: "operator=", linkageName: "_ZN11ap_int_baseILi18ELb1EEaSEy", scope: !741, file: !499, line: 490, type: !875, isLocal: false, isDefinition: false, scopeLine: 490, flags: DIFlagPrototyped, isOptimized: false)
!875 = !DISubroutineType(types: !876)
!876 = !{!837, !767, !440}
!877 = !DISubprogram(name: "operator long long", linkageName: "_ZNK11ap_int_baseILi18ELb1EEcvxEv", scope: !741, file: !499, line: 541, type: !878, isLocal: false, isDefinition: false, scopeLine: 541, flags: DIFlagPrototyped, isOptimized: false)
!878 = !DISubroutineType(types: !879)
!879 = !{!880, !762}
!880 = !DIDerivedType(tag: DW_TAG_typedef, name: "RetType", scope: !741, file: !499, line: 128, baseType: !641)
!881 = !DISubprogram(name: "to_bool", linkageName: "_ZNK11ap_int_baseILi18ELb1EE7to_boolEv", scope: !741, file: !499, line: 546, type: !882, isLocal: false, isDefinition: false, scopeLine: 546, flags: DIFlagPrototyped, isOptimized: false)
!882 = !DISubroutineType(types: !883)
!883 = !{!40, !762}
!884 = !DISubprogram(name: "to_char", linkageName: "_ZNK11ap_int_baseILi18ELb1EE7to_charEv", scope: !741, file: !499, line: 547, type: !885, isLocal: false, isDefinition: false, scopeLine: 547, flags: DIFlagPrototyped, isOptimized: false)
!885 = !DISubroutineType(types: !886)
!886 = !{!86, !762}
!887 = !DISubprogram(name: "to_schar", linkageName: "_ZNK11ap_int_baseILi18ELb1EE8to_scharEv", scope: !741, file: !499, line: 548, type: !888, isLocal: false, isDefinition: false, scopeLine: 548, flags: DIFlagPrototyped, isOptimized: false)
!888 = !DISubroutineType(types: !889)
!889 = !{!90, !762}
!890 = !DISubprogram(name: "to_uchar", linkageName: "_ZNK11ap_int_baseILi18ELb1EE8to_ucharEv", scope: !741, file: !499, line: 549, type: !891, isLocal: false, isDefinition: false, scopeLine: 549, flags: DIFlagPrototyped, isOptimized: false)
!891 = !DISubroutineType(types: !892)
!892 = !{!106, !762}
!893 = !DISubprogram(name: "to_short", linkageName: "_ZNK11ap_int_baseILi18ELb1EE8to_shortEv", scope: !741, file: !499, line: 550, type: !894, isLocal: false, isDefinition: false, scopeLine: 550, flags: DIFlagPrototyped, isOptimized: false)
!894 = !DISubroutineType(types: !895)
!895 = !{!28, !762}
!896 = !DISubprogram(name: "to_ushort", linkageName: "_ZNK11ap_int_baseILi18ELb1EE9to_ushortEv", scope: !741, file: !499, line: 551, type: !897, isLocal: false, isDefinition: false, scopeLine: 551, flags: DIFlagPrototyped, isOptimized: false)
!897 = !DISubroutineType(types: !898)
!898 = !{!115, !762}
!899 = !DISubprogram(name: "to_int", linkageName: "_ZNK11ap_int_baseILi18ELb1EE6to_intEv", scope: !741, file: !499, line: 552, type: !760, isLocal: false, isDefinition: false, scopeLine: 552, flags: DIFlagPrototyped, isOptimized: false)
!900 = !DISubprogram(name: "to_uint", linkageName: "_ZNK11ap_int_baseILi18ELb1EE7to_uintEv", scope: !741, file: !499, line: 553, type: !901, isLocal: false, isDefinition: false, scopeLine: 553, flags: DIFlagPrototyped, isOptimized: false)
!901 = !DISubroutineType(types: !902)
!902 = !{!123, !762}
!903 = !DISubprogram(name: "to_long", linkageName: "_ZNK11ap_int_baseILi18ELb1EE7to_longEv", scope: !741, file: !499, line: 554, type: !904, isLocal: false, isDefinition: false, scopeLine: 554, flags: DIFlagPrototyped, isOptimized: false)
!904 = !DISubroutineType(types: !905)
!905 = !{!128, !762}
!906 = !DISubprogram(name: "to_ulong", linkageName: "_ZNK11ap_int_baseILi18ELb1EE8to_ulongEv", scope: !741, file: !499, line: 555, type: !907, isLocal: false, isDefinition: false, scopeLine: 555, flags: DIFlagPrototyped, isOptimized: false)
!907 = !DISubroutineType(types: !908)
!908 = !{!133, !762}
!909 = !DISubprogram(name: "to_int64", linkageName: "_ZNK11ap_int_baseILi18ELb1EE8to_int64Ev", scope: !741, file: !499, line: 556, type: !910, isLocal: false, isDefinition: false, scopeLine: 556, flags: DIFlagPrototyped, isOptimized: false)
!910 = !DISubroutineType(types: !911)
!911 = !{!435, !762}
!912 = !DISubprogram(name: "to_uint64", linkageName: "_ZNK11ap_int_baseILi18ELb1EE9to_uint64Ev", scope: !741, file: !499, line: 557, type: !913, isLocal: false, isDefinition: false, scopeLine: 557, flags: DIFlagPrototyped, isOptimized: false)
!913 = !DISubroutineType(types: !914)
!914 = !{!440, !762}
!915 = !DISubprogram(name: "to_half", linkageName: "_ZNK11ap_int_baseILi18ELb1EE7to_halfEv", scope: !741, file: !499, line: 558, type: !916, isLocal: false, isDefinition: false, scopeLine: 558, flags: DIFlagPrototyped, isOptimized: false)
!916 = !DISubroutineType(types: !917)
!917 = !{!450, !762}
!918 = !DISubprogram(name: "to_float", linkageName: "_ZNK11ap_int_baseILi18ELb1EE8to_floatEv", scope: !741, file: !499, line: 559, type: !919, isLocal: false, isDefinition: false, scopeLine: 559, flags: DIFlagPrototyped, isOptimized: false)
!919 = !DISubroutineType(types: !920)
!920 = !{!153, !762}
!921 = !DISubprogram(name: "to_double", linkageName: "_ZNK11ap_int_baseILi18ELb1EE9to_doubleEv", scope: !741, file: !499, line: 560, type: !922, isLocal: false, isDefinition: false, scopeLine: 560, flags: DIFlagPrototyped, isOptimized: false)
!922 = !DISubroutineType(types: !923)
!923 = !{!149, !762}
!924 = !DISubprogram(name: "length", linkageName: "_ZNVK11ap_int_baseILi18ELb1EE6lengthEv", scope: !741, file: !499, line: 584, type: !925, isLocal: false, isDefinition: false, scopeLine: 584, flags: DIFlagPrototyped, isOptimized: false)
!925 = !DISubroutineType(types: !926)
!926 = !{!38, !927}
!927 = !DIDerivedType(tag: DW_TAG_pointer_type, baseType: !832, size: 64, flags: DIFlagArtificial | DIFlagObjectPointer)
!928 = !DISubprogram(name: "length", linkageName: "_ZNK11ap_int_baseILi18ELb1EE6lengthEv", scope: !741, file: !499, line: 585, type: !760, isLocal: false, isDefinition: false, scopeLine: 585, flags: DIFlagPrototyped, isOptimized: false)
!929 = !DISubprogram(name: "iszero", linkageName: "_ZNK11ap_int_baseILi18ELb1EE6iszeroEv", scope: !741, file: !499, line: 588, type: !882, isLocal: false, isDefinition: false, scopeLine: 588, flags: DIFlagPrototyped, isOptimized: false)
!930 = !DISubprogram(name: "is_zero", linkageName: "_ZNK11ap_int_baseILi18ELb1EE7is_zeroEv", scope: !741, file: !499, line: 591, type: !882, isLocal: false, isDefinition: false, scopeLine: 591, flags: DIFlagPrototyped, isOptimized: false)
!931 = !DISubprogram(name: "sign", linkageName: "_ZNK11ap_int_baseILi18ELb1EE4signEv", scope: !741, file: !499, line: 594, type: !882, isLocal: false, isDefinition: false, scopeLine: 594, flags: DIFlagPrototyped, isOptimized: false)
!932 = !DISubprogram(name: "clear", linkageName: "_ZN11ap_int_baseILi18ELb1EE5clearEi", scope: !741, file: !499, line: 603, type: !933, isLocal: false, isDefinition: false, scopeLine: 603, flags: DIFlagPrototyped, isOptimized: false)
!933 = !DISubroutineType(types: !934)
!934 = !{null, !767, !38}
!935 = !DISubprogram(name: "invert", linkageName: "_ZN11ap_int_baseILi18ELb1EE6invertEi", scope: !741, file: !499, line: 609, type: !933, isLocal: false, isDefinition: false, scopeLine: 609, flags: DIFlagPrototyped, isOptimized: false)
!936 = !DISubprogram(name: "test", linkageName: "_ZNK11ap_int_baseILi18ELb1EE4testEi", scope: !741, file: !499, line: 618, type: !937, isLocal: false, isDefinition: false, scopeLine: 618, flags: DIFlagPrototyped, isOptimized: false)
!937 = !DISubroutineType(types: !938)
!938 = !{!40, !762, !38}
!939 = !DISubprogram(name: "get", linkageName: "_ZN11ap_int_baseILi18ELb1EE3getEv", scope: !741, file: !499, line: 624, type: !940, isLocal: false, isDefinition: false, scopeLine: 624, flags: DIFlagPrototyped, isOptimized: false)
!940 = !DISubroutineType(types: !941)
!941 = !{!837, !767}
!942 = !DISubprogram(name: "set", linkageName: "_ZN11ap_int_baseILi18ELb1EE3setEi", scope: !741, file: !499, line: 627, type: !933, isLocal: false, isDefinition: false, scopeLine: 627, flags: DIFlagPrototyped, isOptimized: false)
!943 = !DISubprogram(name: "set", linkageName: "_ZN11ap_int_baseILi18ELb1EE3setEib", scope: !741, file: !499, line: 633, type: !944, isLocal: false, isDefinition: false, scopeLine: 633, flags: DIFlagPrototyped, isOptimized: false)
!944 = !DISubroutineType(types: !945)
!945 = !{null, !767, !38, !40}
!946 = !DISubprogram(name: "lrotate", linkageName: "_ZN11ap_int_baseILi18ELb1EE7lrotateEi", scope: !741, file: !499, line: 640, type: !860, isLocal: false, isDefinition: false, scopeLine: 640, flags: DIFlagPrototyped, isOptimized: false)
!947 = !DISubprogram(name: "rrotate", linkageName: "_ZN11ap_int_baseILi18ELb1EE7rrotateEi", scope: !741, file: !499, line: 655, type: !860, isLocal: false, isDefinition: false, scopeLine: 655, flags: DIFlagPrototyped, isOptimized: false)
!948 = !DISubprogram(name: "reverse", linkageName: "_ZN11ap_int_baseILi18ELb1EE7reverseEv", scope: !741, file: !499, line: 670, type: !940, isLocal: false, isDefinition: false, scopeLine: 670, flags: DIFlagPrototyped, isOptimized: false)
!949 = !DISubprogram(name: "set_bit", linkageName: "_ZN11ap_int_baseILi18ELb1EE7set_bitEib", scope: !741, file: !499, line: 676, type: !944, isLocal: false, isDefinition: false, scopeLine: 676, flags: DIFlagPrototyped, isOptimized: false)
!950 = !DISubprogram(name: "get_bit", linkageName: "_ZNK11ap_int_baseILi18ELb1EE7get_bitEi", scope: !741, file: !499, line: 681, type: !937, isLocal: false, isDefinition: false, scopeLine: 681, flags: DIFlagPrototyped, isOptimized: false)
!951 = !DISubprogram(name: "b_not", linkageName: "_ZN11ap_int_baseILi18ELb1EE5b_notEv", scope: !741, file: !499, line: 686, type: !765, isLocal: false, isDefinition: false, scopeLine: 686, flags: DIFlagPrototyped, isOptimized: false)
!952 = !DISubprogram(name: "checkOverflowCsim", linkageName: "_ZNK11ap_int_baseILi18ELb1EE17checkOverflowCsimEibb", scope: !741, file: !499, line: 760, type: !953, isLocal: false, isDefinition: false, scopeLine: 760, flags: DIFlagPrototyped, isOptimized: false)
!953 = !DISubroutineType(types: !954)
!954 = !{!40, !762, !38, !40, !40}
!955 = !DISubprogram(name: "operator++", linkageName: "_ZN11ap_int_baseILi18ELb1EEppEv", scope: !741, file: !499, line: 865, type: !940, isLocal: false, isDefinition: false, scopeLine: 865, flags: DIFlagPrototyped, isOptimized: false)
!956 = !DISubprogram(name: "operator--", linkageName: "_ZN11ap_int_baseILi18ELb1EEmmEv", scope: !741, file: !499, line: 869, type: !940, isLocal: false, isDefinition: false, scopeLine: 869, flags: DIFlagPrototyped, isOptimized: false)
!957 = !DISubprogram(name: "operator++", linkageName: "_ZN11ap_int_baseILi18ELb1EEppEi", scope: !741, file: !499, line: 877, type: !958, isLocal: false, isDefinition: false, scopeLine: 877, flags: DIFlagPrototyped, isOptimized: false)
!958 = !DISubroutineType(types: !959)
!959 = !{!960, !767, !38}
!960 = !DIDerivedType(tag: DW_TAG_const_type, baseType: !961)
!961 = !DIDerivedType(tag: DW_TAG_typedef, name: "arg1", scope: !962, file: !499, line: 167, baseType: !734)
!962 = distinct !DICompositeType(tag: DW_TAG_structure_type, name: "RType<18, true>", scope: !741, file: !499, line: 134, size: 8, flags: DIFlagTypePassByValue, elements: !4, templateParams: !736, identifier: "_ZTSN11ap_int_baseILi18ELb1EE5RTypeILi18ELb1EEE")
!963 = !DISubprogram(name: "operator--", linkageName: "_ZN11ap_int_baseILi18ELb1EEmmEi", scope: !741, file: !499, line: 882, type: !958, isLocal: false, isDefinition: false, scopeLine: 882, flags: DIFlagPrototyped, isOptimized: false)
!964 = !DISubprogram(name: "operator+", linkageName: "_ZNK11ap_int_baseILi18ELb1EEpsEv", scope: !741, file: !499, line: 891, type: !965, isLocal: false, isDefinition: false, scopeLine: 891, flags: DIFlagPrototyped, isOptimized: false)
!965 = !DISubroutineType(types: !966)
!966 = !{!961, !762}
!967 = !DISubprogram(name: "operator-", linkageName: "_ZNK11ap_int_baseILi18ELb1EEngEv", scope: !741, file: !499, line: 894, type: !968, isLocal: false, isDefinition: false, scopeLine: 894, flags: DIFlagPrototyped, isOptimized: false)
!968 = !DISubroutineType(types: !969)
!969 = !{!970, !762}
!970 = !DIDerivedType(tag: DW_TAG_typedef, name: "minus", scope: !971, file: !499, line: 163, baseType: !972)
!971 = distinct !DICompositeType(tag: DW_TAG_structure_type, name: "RType<1, false>", scope: !741, file: !499, line: 134, size: 8, flags: DIFlagTypePassByValue, elements: !4, templateParams: !488, identifier: "_ZTSN11ap_int_baseILi18ELb1EE5RTypeILi1ELb0EEE")
!972 = !DIDerivedType(tag: DW_TAG_typedef, name: "type", scope: !973, file: !499, line: 103, baseType: !976)
!973 = distinct !DICompositeType(tag: DW_TAG_structure_type, name: "_ap_int_factory<19, true>", file: !499, line: 103, size: 8, flags: DIFlagTypePassByValue, elements: !4, templateParams: !974, identifier: "_ZTS15_ap_int_factoryILi19ELb1EE")
!974 = !{!975, !388}
!975 = !DITemplateValueParameter(name: "_AP_W2", type: !38, value: i32 19)
!976 = distinct !DICompositeType(tag: DW_TAG_structure_type, name: "ap_int<19>", file: !392, line: 18, size: 32, flags: DIFlagTypePassByValue, elements: !977, templateParams: !1330, identifier: "_ZTS6ap_intILi19EE")
!977 = !{!978, !1252, !1256, !1260, !1263, !1266, !1269, !1272, !1275, !1278, !1281, !1284, !1287, !1290, !1293, !1296, !1299, !1302, !1305, !1308, !1311, !1317, !1323, !1327}
!978 = !DIDerivedType(tag: DW_TAG_inheritance, scope: !976, baseType: !979)
!979 = distinct !DICompositeType(tag: DW_TAG_structure_type, name: "ap_int_base<19, true>", file: !499, line: 108, size: 32, flags: DIFlagTypePassByValue, elements: !980, templateParams: !1250, identifier: "_ZTS11ap_int_baseILi19ELb1EE")
!980 = !{!981, !995, !996, !997, !1002, !1006, !1009, !1012, !1015, !1018, !1021, !1024, !1027, !1030, !1033, !1036, !1039, !1042, !1045, !1048, !1051, !1054, !1057, !1062, !1066, !1071, !1072, !1076, !1079, !1082, !1085, !1088, !1091, !1094, !1097, !1100, !1103, !1106, !1109, !1112, !1115, !1119, !1122, !1125, !1128, !1131, !1134, !1137, !1138, !1141, !1144, !1147, !1150, !1153, !1156, !1159, !1162, !1166, !1167, !1168, !1169, !1170, !1173, !1174, !1177, !1180, !1181, !1184, !1185, !1186, !1187, !1188, !1189, !1190, !1193, !1194, !1195, !1201, !1202, !1205, !1215, !1216, !1217, !1221, !1224, !1227, !1230, !1231, !1232, !1236, !1237, !1238, !1239, !1240, !1241, !1242, !1243, !1244, !1245, !1246}
!981 = !DIDerivedType(tag: DW_TAG_inheritance, scope: !979, baseType: !982)
!982 = distinct !DICompositeType(tag: DW_TAG_structure_type, name: "ssdm_int<19, true>", file: !451, line: 509, size: 32, flags: DIFlagTypePassByValue, elements: !983, templateParams: !993, identifier: "_ZTS8ssdm_intILi19ELb1EE")
!983 = !{!984, !986, !990}
!984 = !DIDerivedType(tag: DW_TAG_member, name: "V", scope: !982, file: !451, line: 511, baseType: !985, size: 19, align: 32)
!985 = !DIBasicType(name: "int19", size: 19, encoding: DW_ATE_signed)
!986 = !DISubprogram(name: "ssdm_int", scope: !982, file: !451, line: 512, type: !987, isLocal: false, isDefinition: false, scopeLine: 512, flags: DIFlagPrototyped, isOptimized: false)
!987 = !DISubroutineType(types: !988)
!988 = !{null, !989}
!989 = !DIDerivedType(tag: DW_TAG_pointer_type, baseType: !982, size: 64, flags: DIFlagArtificial | DIFlagObjectPointer)
!990 = !DISubprogram(name: "ssdm_int", scope: !982, file: !451, line: 513, type: !991, isLocal: false, isDefinition: false, scopeLine: 513, flags: DIFlagPrototyped, isOptimized: false)
!991 = !DISubroutineType(types: !992)
!992 = !{null, !989, !985}
!993 = !{!994, !39}
!994 = !DITemplateValueParameter(name: "_AP_N", type: !38, value: i32 19)
!995 = !DIDerivedType(tag: DW_TAG_member, name: "width", scope: !979, file: !499, line: 130, baseType: !42, flags: DIFlagStaticMember, extraData: i32 19)
!996 = !DIDerivedType(tag: DW_TAG_member, name: "sign_flag", scope: !979, file: !499, line: 131, baseType: !94, flags: DIFlagStaticMember, extraData: i1 true)
!997 = !DISubprogram(name: "countLeadingOnes", linkageName: "_ZNK11ap_int_baseILi19ELb1EE16countLeadingOnesEv", scope: !979, file: !499, line: 110, type: !998, isLocal: false, isDefinition: false, scopeLine: 110, flags: DIFlagPrivate | DIFlagPrototyped, isOptimized: false)
!998 = !DISubroutineType(types: !999)
!999 = !{!38, !1000}
!1000 = !DIDerivedType(tag: DW_TAG_pointer_type, baseType: !1001, size: 64, flags: DIFlagArtificial | DIFlagObjectPointer)
!1001 = !DIDerivedType(tag: DW_TAG_const_type, baseType: !979)
!1002 = !DISubprogram(name: "ap_int_base", scope: !979, file: !499, line: 175, type: !1003, isLocal: false, isDefinition: false, scopeLine: 175, flags: DIFlagPrototyped, isOptimized: false)
!1003 = !DISubroutineType(types: !1004)
!1004 = !{null, !1005}
!1005 = !DIDerivedType(tag: DW_TAG_pointer_type, baseType: !979, size: 64, flags: DIFlagArtificial | DIFlagObjectPointer)
!1006 = !DISubprogram(name: "ap_int_base", scope: !979, file: !499, line: 208, type: !1007, isLocal: false, isDefinition: false, scopeLine: 208, flags: DIFlagPrototyped, isOptimized: false)
!1007 = !DISubroutineType(types: !1008)
!1008 = !{null, !1005, !94}
!1009 = !DISubprogram(name: "ap_int_base", scope: !979, file: !499, line: 209, type: !1010, isLocal: false, isDefinition: false, scopeLine: 209, flags: DIFlagPrototyped, isOptimized: false)
!1010 = !DISubroutineType(types: !1011)
!1011 = !{null, !1005, !85}
!1012 = !DISubprogram(name: "ap_int_base", scope: !979, file: !499, line: 210, type: !1013, isLocal: false, isDefinition: false, scopeLine: 210, flags: DIFlagPrototyped, isOptimized: false)
!1013 = !DISubroutineType(types: !1014)
!1014 = !{null, !1005, !101}
!1015 = !DISubprogram(name: "ap_int_base", scope: !979, file: !499, line: 211, type: !1016, isLocal: false, isDefinition: false, scopeLine: 211, flags: DIFlagPrototyped, isOptimized: false)
!1016 = !DISubroutineType(types: !1017)
!1017 = !{null, !1005, !105}
!1018 = !DISubprogram(name: "ap_int_base", scope: !979, file: !499, line: 212, type: !1019, isLocal: false, isDefinition: false, scopeLine: 212, flags: DIFlagPrototyped, isOptimized: false)
!1019 = !DISubroutineType(types: !1020)
!1020 = !{null, !1005, !110}
!1021 = !DISubprogram(name: "ap_int_base", scope: !979, file: !499, line: 213, type: !1022, isLocal: false, isDefinition: false, scopeLine: 213, flags: DIFlagPrototyped, isOptimized: false)
!1022 = !DISubroutineType(types: !1023)
!1023 = !{null, !1005, !114}
!1024 = !DISubprogram(name: "ap_int_base", scope: !979, file: !499, line: 214, type: !1025, isLocal: false, isDefinition: false, scopeLine: 214, flags: DIFlagPrototyped, isOptimized: false)
!1025 = !DISubroutineType(types: !1026)
!1026 = !{null, !1005, !42}
!1027 = !DISubprogram(name: "ap_int_base", scope: !979, file: !499, line: 215, type: !1028, isLocal: false, isDefinition: false, scopeLine: 215, flags: DIFlagPrototyped, isOptimized: false)
!1028 = !DISubroutineType(types: !1029)
!1029 = !{null, !1005, !122}
!1030 = !DISubprogram(name: "ap_int_base", scope: !979, file: !499, line: 216, type: !1031, isLocal: false, isDefinition: false, scopeLine: 216, flags: DIFlagPrototyped, isOptimized: false)
!1031 = !DISubroutineType(types: !1032)
!1032 = !{null, !1005, !127}
!1033 = !DISubprogram(name: "ap_int_base", scope: !979, file: !499, line: 217, type: !1034, isLocal: false, isDefinition: false, scopeLine: 217, flags: DIFlagPrototyped, isOptimized: false)
!1034 = !DISubroutineType(types: !1035)
!1035 = !{null, !1005, !132}
!1036 = !DISubprogram(name: "ap_int_base", scope: !979, file: !499, line: 218, type: !1037, isLocal: false, isDefinition: false, scopeLine: 218, flags: DIFlagPrototyped, isOptimized: false)
!1037 = !DISubroutineType(types: !1038)
!1038 = !{null, !1005, !559}
!1039 = !DISubprogram(name: "ap_int_base", scope: !979, file: !499, line: 219, type: !1040, isLocal: false, isDefinition: false, scopeLine: 219, flags: DIFlagPrototyped, isOptimized: false)
!1040 = !DISubroutineType(types: !1041)
!1041 = !{null, !1005, !563}
!1042 = !DISubprogram(name: "ap_int_base", scope: !979, file: !499, line: 224, type: !1043, isLocal: false, isDefinition: false, scopeLine: 224, flags: DIFlagPrototyped, isOptimized: false)
!1043 = !DISubroutineType(types: !1044)
!1044 = !{null, !1005, !450}
!1045 = !DISubprogram(name: "ap_int_base", scope: !979, file: !499, line: 230, type: !1046, isLocal: false, isDefinition: false, scopeLine: 230, flags: DIFlagPrototyped, isOptimized: false)
!1046 = !DISubroutineType(types: !1047)
!1047 = !{null, !1005, !153}
!1048 = !DISubprogram(name: "ap_int_base", scope: !979, file: !499, line: 289, type: !1049, isLocal: false, isDefinition: false, scopeLine: 289, flags: DIFlagPrototyped, isOptimized: false)
!1049 = !DISubroutineType(types: !1050)
!1050 = !{null, !1005, !149}
!1051 = !DISubprogram(name: "ap_int_base", scope: !979, file: !499, line: 385, type: !1052, isLocal: false, isDefinition: false, scopeLine: 385, flags: DIFlagPrototyped, isOptimized: false)
!1052 = !DISubroutineType(types: !1053)
!1053 = !{null, !1005, !84}
!1054 = !DISubprogram(name: "ap_int_base", scope: !979, file: !499, line: 391, type: !1055, isLocal: false, isDefinition: false, scopeLine: 391, flags: DIFlagPrototyped, isOptimized: false)
!1055 = !DISubroutineType(types: !1056)
!1056 = !{null, !1005, !84, !90}
!1057 = !DISubprogram(name: "read", linkageName: "_ZNV11ap_int_baseILi19ELb1EE4readEv", scope: !979, file: !499, line: 413, type: !1058, isLocal: false, isDefinition: false, scopeLine: 413, flags: DIFlagPrototyped, isOptimized: false)
!1058 = !DISubroutineType(types: !1059)
!1059 = !{!979, !1060}
!1060 = !DIDerivedType(tag: DW_TAG_pointer_type, baseType: !1061, size: 64, flags: DIFlagArtificial | DIFlagObjectPointer)
!1061 = !DIDerivedType(tag: DW_TAG_volatile_type, baseType: !979)
!1062 = !DISubprogram(name: "write", linkageName: "_ZNV11ap_int_baseILi19ELb1EE5writeERKS0_", scope: !979, file: !499, line: 420, type: !1063, isLocal: false, isDefinition: false, scopeLine: 420, flags: DIFlagPrototyped, isOptimized: false)
!1063 = !DISubroutineType(types: !1064)
!1064 = !{null, !1060, !1065}
!1065 = !DIDerivedType(tag: DW_TAG_reference_type, baseType: !1001, size: 64)
!1066 = !DISubprogram(name: "operator=", linkageName: "_ZNV11ap_int_baseILi19ELb1EEaSERVKS0_", scope: !979, file: !499, line: 432, type: !1067, isLocal: false, isDefinition: false, scopeLine: 432, flags: DIFlagPrototyped, isOptimized: false)
!1067 = !DISubroutineType(types: !1068)
!1068 = !{null, !1060, !1069}
!1069 = !DIDerivedType(tag: DW_TAG_reference_type, baseType: !1070, size: 64)
!1070 = !DIDerivedType(tag: DW_TAG_const_type, baseType: !1061)
!1071 = !DISubprogram(name: "operator=", linkageName: "_ZNV11ap_int_baseILi19ELb1EEaSERKS0_", scope: !979, file: !499, line: 442, type: !1063, isLocal: false, isDefinition: false, scopeLine: 442, flags: DIFlagPrototyped, isOptimized: false)
!1072 = !DISubprogram(name: "operator=", linkageName: "_ZN11ap_int_baseILi19ELb1EEaSERVKS0_", scope: !979, file: !499, line: 459, type: !1073, isLocal: false, isDefinition: false, scopeLine: 459, flags: DIFlagPrototyped, isOptimized: false)
!1073 = !DISubroutineType(types: !1074)
!1074 = !{!1075, !1005, !1069}
!1075 = !DIDerivedType(tag: DW_TAG_reference_type, baseType: !979, size: 64)
!1076 = !DISubprogram(name: "operator=", linkageName: "_ZN11ap_int_baseILi19ELb1EEaSERKS0_", scope: !979, file: !499, line: 465, type: !1077, isLocal: false, isDefinition: false, scopeLine: 465, flags: DIFlagPrototyped, isOptimized: false)
!1077 = !DISubroutineType(types: !1078)
!1078 = !{!1075, !1005, !1065}
!1079 = !DISubprogram(name: "operator=", linkageName: "_ZN11ap_int_baseILi19ELb1EEaSEb", scope: !979, file: !499, line: 479, type: !1080, isLocal: false, isDefinition: false, scopeLine: 479, flags: DIFlagPrototyped, isOptimized: false)
!1080 = !DISubroutineType(types: !1081)
!1081 = !{!1075, !1005, !40}
!1082 = !DISubprogram(name: "operator=", linkageName: "_ZN11ap_int_baseILi19ELb1EEaSEc", scope: !979, file: !499, line: 480, type: !1083, isLocal: false, isDefinition: false, scopeLine: 480, flags: DIFlagPrototyped, isOptimized: false)
!1083 = !DISubroutineType(types: !1084)
!1084 = !{!1075, !1005, !86}
!1085 = !DISubprogram(name: "operator=", linkageName: "_ZN11ap_int_baseILi19ELb1EEaSEa", scope: !979, file: !499, line: 481, type: !1086, isLocal: false, isDefinition: false, scopeLine: 481, flags: DIFlagPrototyped, isOptimized: false)
!1086 = !DISubroutineType(types: !1087)
!1087 = !{!1075, !1005, !90}
!1088 = !DISubprogram(name: "operator=", linkageName: "_ZN11ap_int_baseILi19ELb1EEaSEh", scope: !979, file: !499, line: 482, type: !1089, isLocal: false, isDefinition: false, scopeLine: 482, flags: DIFlagPrototyped, isOptimized: false)
!1089 = !DISubroutineType(types: !1090)
!1090 = !{!1075, !1005, !106}
!1091 = !DISubprogram(name: "operator=", linkageName: "_ZN11ap_int_baseILi19ELb1EEaSEs", scope: !979, file: !499, line: 483, type: !1092, isLocal: false, isDefinition: false, scopeLine: 483, flags: DIFlagPrototyped, isOptimized: false)
!1092 = !DISubroutineType(types: !1093)
!1093 = !{!1075, !1005, !28}
!1094 = !DISubprogram(name: "operator=", linkageName: "_ZN11ap_int_baseILi19ELb1EEaSEt", scope: !979, file: !499, line: 484, type: !1095, isLocal: false, isDefinition: false, scopeLine: 484, flags: DIFlagPrototyped, isOptimized: false)
!1095 = !DISubroutineType(types: !1096)
!1096 = !{!1075, !1005, !115}
!1097 = !DISubprogram(name: "operator=", linkageName: "_ZN11ap_int_baseILi19ELb1EEaSEi", scope: !979, file: !499, line: 485, type: !1098, isLocal: false, isDefinition: false, scopeLine: 485, flags: DIFlagPrototyped, isOptimized: false)
!1098 = !DISubroutineType(types: !1099)
!1099 = !{!1075, !1005, !38}
!1100 = !DISubprogram(name: "operator=", linkageName: "_ZN11ap_int_baseILi19ELb1EEaSEj", scope: !979, file: !499, line: 486, type: !1101, isLocal: false, isDefinition: false, scopeLine: 486, flags: DIFlagPrototyped, isOptimized: false)
!1101 = !DISubroutineType(types: !1102)
!1102 = !{!1075, !1005, !123}
!1103 = !DISubprogram(name: "operator=", linkageName: "_ZN11ap_int_baseILi19ELb1EEaSEl", scope: !979, file: !499, line: 487, type: !1104, isLocal: false, isDefinition: false, scopeLine: 487, flags: DIFlagPrototyped, isOptimized: false)
!1104 = !DISubroutineType(types: !1105)
!1105 = !{!1075, !1005, !128}
!1106 = !DISubprogram(name: "operator=", linkageName: "_ZN11ap_int_baseILi19ELb1EEaSEm", scope: !979, file: !499, line: 488, type: !1107, isLocal: false, isDefinition: false, scopeLine: 488, flags: DIFlagPrototyped, isOptimized: false)
!1107 = !DISubroutineType(types: !1108)
!1108 = !{!1075, !1005, !133}
!1109 = !DISubprogram(name: "operator=", linkageName: "_ZN11ap_int_baseILi19ELb1EEaSEx", scope: !979, file: !499, line: 489, type: !1110, isLocal: false, isDefinition: false, scopeLine: 489, flags: DIFlagPrototyped, isOptimized: false)
!1110 = !DISubroutineType(types: !1111)
!1111 = !{!1075, !1005, !435}
!1112 = !DISubprogram(name: "operator=", linkageName: "_ZN11ap_int_baseILi19ELb1EEaSEy", scope: !979, file: !499, line: 490, type: !1113, isLocal: false, isDefinition: false, scopeLine: 490, flags: DIFlagPrototyped, isOptimized: false)
!1113 = !DISubroutineType(types: !1114)
!1114 = !{!1075, !1005, !440}
!1115 = !DISubprogram(name: "operator long long", linkageName: "_ZNK11ap_int_baseILi19ELb1EEcvxEv", scope: !979, file: !499, line: 541, type: !1116, isLocal: false, isDefinition: false, scopeLine: 541, flags: DIFlagPrototyped, isOptimized: false)
!1116 = !DISubroutineType(types: !1117)
!1117 = !{!1118, !1000}
!1118 = !DIDerivedType(tag: DW_TAG_typedef, name: "RetType", scope: !979, file: !499, line: 128, baseType: !641)
!1119 = !DISubprogram(name: "to_bool", linkageName: "_ZNK11ap_int_baseILi19ELb1EE7to_boolEv", scope: !979, file: !499, line: 546, type: !1120, isLocal: false, isDefinition: false, scopeLine: 546, flags: DIFlagPrototyped, isOptimized: false)
!1120 = !DISubroutineType(types: !1121)
!1121 = !{!40, !1000}
!1122 = !DISubprogram(name: "to_char", linkageName: "_ZNK11ap_int_baseILi19ELb1EE7to_charEv", scope: !979, file: !499, line: 547, type: !1123, isLocal: false, isDefinition: false, scopeLine: 547, flags: DIFlagPrototyped, isOptimized: false)
!1123 = !DISubroutineType(types: !1124)
!1124 = !{!86, !1000}
!1125 = !DISubprogram(name: "to_schar", linkageName: "_ZNK11ap_int_baseILi19ELb1EE8to_scharEv", scope: !979, file: !499, line: 548, type: !1126, isLocal: false, isDefinition: false, scopeLine: 548, flags: DIFlagPrototyped, isOptimized: false)
!1126 = !DISubroutineType(types: !1127)
!1127 = !{!90, !1000}
!1128 = !DISubprogram(name: "to_uchar", linkageName: "_ZNK11ap_int_baseILi19ELb1EE8to_ucharEv", scope: !979, file: !499, line: 549, type: !1129, isLocal: false, isDefinition: false, scopeLine: 549, flags: DIFlagPrototyped, isOptimized: false)
!1129 = !DISubroutineType(types: !1130)
!1130 = !{!106, !1000}
!1131 = !DISubprogram(name: "to_short", linkageName: "_ZNK11ap_int_baseILi19ELb1EE8to_shortEv", scope: !979, file: !499, line: 550, type: !1132, isLocal: false, isDefinition: false, scopeLine: 550, flags: DIFlagPrototyped, isOptimized: false)
!1132 = !DISubroutineType(types: !1133)
!1133 = !{!28, !1000}
!1134 = !DISubprogram(name: "to_ushort", linkageName: "_ZNK11ap_int_baseILi19ELb1EE9to_ushortEv", scope: !979, file: !499, line: 551, type: !1135, isLocal: false, isDefinition: false, scopeLine: 551, flags: DIFlagPrototyped, isOptimized: false)
!1135 = !DISubroutineType(types: !1136)
!1136 = !{!115, !1000}
!1137 = !DISubprogram(name: "to_int", linkageName: "_ZNK11ap_int_baseILi19ELb1EE6to_intEv", scope: !979, file: !499, line: 552, type: !998, isLocal: false, isDefinition: false, scopeLine: 552, flags: DIFlagPrototyped, isOptimized: false)
!1138 = !DISubprogram(name: "to_uint", linkageName: "_ZNK11ap_int_baseILi19ELb1EE7to_uintEv", scope: !979, file: !499, line: 553, type: !1139, isLocal: false, isDefinition: false, scopeLine: 553, flags: DIFlagPrototyped, isOptimized: false)
!1139 = !DISubroutineType(types: !1140)
!1140 = !{!123, !1000}
!1141 = !DISubprogram(name: "to_long", linkageName: "_ZNK11ap_int_baseILi19ELb1EE7to_longEv", scope: !979, file: !499, line: 554, type: !1142, isLocal: false, isDefinition: false, scopeLine: 554, flags: DIFlagPrototyped, isOptimized: false)
!1142 = !DISubroutineType(types: !1143)
!1143 = !{!128, !1000}
!1144 = !DISubprogram(name: "to_ulong", linkageName: "_ZNK11ap_int_baseILi19ELb1EE8to_ulongEv", scope: !979, file: !499, line: 555, type: !1145, isLocal: false, isDefinition: false, scopeLine: 555, flags: DIFlagPrototyped, isOptimized: false)
!1145 = !DISubroutineType(types: !1146)
!1146 = !{!133, !1000}
!1147 = !DISubprogram(name: "to_int64", linkageName: "_ZNK11ap_int_baseILi19ELb1EE8to_int64Ev", scope: !979, file: !499, line: 556, type: !1148, isLocal: false, isDefinition: false, scopeLine: 556, flags: DIFlagPrototyped, isOptimized: false)
!1148 = !DISubroutineType(types: !1149)
!1149 = !{!435, !1000}
!1150 = !DISubprogram(name: "to_uint64", linkageName: "_ZNK11ap_int_baseILi19ELb1EE9to_uint64Ev", scope: !979, file: !499, line: 557, type: !1151, isLocal: false, isDefinition: false, scopeLine: 557, flags: DIFlagPrototyped, isOptimized: false)
!1151 = !DISubroutineType(types: !1152)
!1152 = !{!440, !1000}
!1153 = !DISubprogram(name: "to_half", linkageName: "_ZNK11ap_int_baseILi19ELb1EE7to_halfEv", scope: !979, file: !499, line: 558, type: !1154, isLocal: false, isDefinition: false, scopeLine: 558, flags: DIFlagPrototyped, isOptimized: false)
!1154 = !DISubroutineType(types: !1155)
!1155 = !{!450, !1000}
!1156 = !DISubprogram(name: "to_float", linkageName: "_ZNK11ap_int_baseILi19ELb1EE8to_floatEv", scope: !979, file: !499, line: 559, type: !1157, isLocal: false, isDefinition: false, scopeLine: 559, flags: DIFlagPrototyped, isOptimized: false)
!1157 = !DISubroutineType(types: !1158)
!1158 = !{!153, !1000}
!1159 = !DISubprogram(name: "to_double", linkageName: "_ZNK11ap_int_baseILi19ELb1EE9to_doubleEv", scope: !979, file: !499, line: 560, type: !1160, isLocal: false, isDefinition: false, scopeLine: 560, flags: DIFlagPrototyped, isOptimized: false)
!1160 = !DISubroutineType(types: !1161)
!1161 = !{!149, !1000}
!1162 = !DISubprogram(name: "length", linkageName: "_ZNVK11ap_int_baseILi19ELb1EE6lengthEv", scope: !979, file: !499, line: 584, type: !1163, isLocal: false, isDefinition: false, scopeLine: 584, flags: DIFlagPrototyped, isOptimized: false)
!1163 = !DISubroutineType(types: !1164)
!1164 = !{!38, !1165}
!1165 = !DIDerivedType(tag: DW_TAG_pointer_type, baseType: !1070, size: 64, flags: DIFlagArtificial | DIFlagObjectPointer)
!1166 = !DISubprogram(name: "length", linkageName: "_ZNK11ap_int_baseILi19ELb1EE6lengthEv", scope: !979, file: !499, line: 585, type: !998, isLocal: false, isDefinition: false, scopeLine: 585, flags: DIFlagPrototyped, isOptimized: false)
!1167 = !DISubprogram(name: "iszero", linkageName: "_ZNK11ap_int_baseILi19ELb1EE6iszeroEv", scope: !979, file: !499, line: 588, type: !1120, isLocal: false, isDefinition: false, scopeLine: 588, flags: DIFlagPrototyped, isOptimized: false)
!1168 = !DISubprogram(name: "is_zero", linkageName: "_ZNK11ap_int_baseILi19ELb1EE7is_zeroEv", scope: !979, file: !499, line: 591, type: !1120, isLocal: false, isDefinition: false, scopeLine: 591, flags: DIFlagPrototyped, isOptimized: false)
!1169 = !DISubprogram(name: "sign", linkageName: "_ZNK11ap_int_baseILi19ELb1EE4signEv", scope: !979, file: !499, line: 594, type: !1120, isLocal: false, isDefinition: false, scopeLine: 594, flags: DIFlagPrototyped, isOptimized: false)
!1170 = !DISubprogram(name: "clear", linkageName: "_ZN11ap_int_baseILi19ELb1EE5clearEi", scope: !979, file: !499, line: 603, type: !1171, isLocal: false, isDefinition: false, scopeLine: 603, flags: DIFlagPrototyped, isOptimized: false)
!1171 = !DISubroutineType(types: !1172)
!1172 = !{null, !1005, !38}
!1173 = !DISubprogram(name: "invert", linkageName: "_ZN11ap_int_baseILi19ELb1EE6invertEi", scope: !979, file: !499, line: 609, type: !1171, isLocal: false, isDefinition: false, scopeLine: 609, flags: DIFlagPrototyped, isOptimized: false)
!1174 = !DISubprogram(name: "test", linkageName: "_ZNK11ap_int_baseILi19ELb1EE4testEi", scope: !979, file: !499, line: 618, type: !1175, isLocal: false, isDefinition: false, scopeLine: 618, flags: DIFlagPrototyped, isOptimized: false)
!1175 = !DISubroutineType(types: !1176)
!1176 = !{!40, !1000, !38}
!1177 = !DISubprogram(name: "get", linkageName: "_ZN11ap_int_baseILi19ELb1EE3getEv", scope: !979, file: !499, line: 624, type: !1178, isLocal: false, isDefinition: false, scopeLine: 624, flags: DIFlagPrototyped, isOptimized: false)
!1178 = !DISubroutineType(types: !1179)
!1179 = !{!1075, !1005}
!1180 = !DISubprogram(name: "set", linkageName: "_ZN11ap_int_baseILi19ELb1EE3setEi", scope: !979, file: !499, line: 627, type: !1171, isLocal: false, isDefinition: false, scopeLine: 627, flags: DIFlagPrototyped, isOptimized: false)
!1181 = !DISubprogram(name: "set", linkageName: "_ZN11ap_int_baseILi19ELb1EE3setEib", scope: !979, file: !499, line: 633, type: !1182, isLocal: false, isDefinition: false, scopeLine: 633, flags: DIFlagPrototyped, isOptimized: false)
!1182 = !DISubroutineType(types: !1183)
!1183 = !{null, !1005, !38, !40}
!1184 = !DISubprogram(name: "lrotate", linkageName: "_ZN11ap_int_baseILi19ELb1EE7lrotateEi", scope: !979, file: !499, line: 640, type: !1098, isLocal: false, isDefinition: false, scopeLine: 640, flags: DIFlagPrototyped, isOptimized: false)
!1185 = !DISubprogram(name: "rrotate", linkageName: "_ZN11ap_int_baseILi19ELb1EE7rrotateEi", scope: !979, file: !499, line: 655, type: !1098, isLocal: false, isDefinition: false, scopeLine: 655, flags: DIFlagPrototyped, isOptimized: false)
!1186 = !DISubprogram(name: "reverse", linkageName: "_ZN11ap_int_baseILi19ELb1EE7reverseEv", scope: !979, file: !499, line: 670, type: !1178, isLocal: false, isDefinition: false, scopeLine: 670, flags: DIFlagPrototyped, isOptimized: false)
!1187 = !DISubprogram(name: "set_bit", linkageName: "_ZN11ap_int_baseILi19ELb1EE7set_bitEib", scope: !979, file: !499, line: 676, type: !1182, isLocal: false, isDefinition: false, scopeLine: 676, flags: DIFlagPrototyped, isOptimized: false)
!1188 = !DISubprogram(name: "get_bit", linkageName: "_ZNK11ap_int_baseILi19ELb1EE7get_bitEi", scope: !979, file: !499, line: 681, type: !1175, isLocal: false, isDefinition: false, scopeLine: 681, flags: DIFlagPrototyped, isOptimized: false)
!1189 = !DISubprogram(name: "b_not", linkageName: "_ZN11ap_int_baseILi19ELb1EE5b_notEv", scope: !979, file: !499, line: 686, type: !1003, isLocal: false, isDefinition: false, scopeLine: 686, flags: DIFlagPrototyped, isOptimized: false)
!1190 = !DISubprogram(name: "checkOverflowCsim", linkageName: "_ZNK11ap_int_baseILi19ELb1EE17checkOverflowCsimEibb", scope: !979, file: !499, line: 760, type: !1191, isLocal: false, isDefinition: false, scopeLine: 760, flags: DIFlagPrototyped, isOptimized: false)
!1191 = !DISubroutineType(types: !1192)
!1192 = !{!40, !1000, !38, !40, !40}
!1193 = !DISubprogram(name: "operator++", linkageName: "_ZN11ap_int_baseILi19ELb1EEppEv", scope: !979, file: !499, line: 865, type: !1178, isLocal: false, isDefinition: false, scopeLine: 865, flags: DIFlagPrototyped, isOptimized: false)
!1194 = !DISubprogram(name: "operator--", linkageName: "_ZN11ap_int_baseILi19ELb1EEmmEv", scope: !979, file: !499, line: 869, type: !1178, isLocal: false, isDefinition: false, scopeLine: 869, flags: DIFlagPrototyped, isOptimized: false)
!1195 = !DISubprogram(name: "operator++", linkageName: "_ZN11ap_int_baseILi19ELb1EEppEi", scope: !979, file: !499, line: 877, type: !1196, isLocal: false, isDefinition: false, scopeLine: 877, flags: DIFlagPrototyped, isOptimized: false)
!1196 = !DISubroutineType(types: !1197)
!1197 = !{!1198, !1005, !38}
!1198 = !DIDerivedType(tag: DW_TAG_const_type, baseType: !1199)
!1199 = !DIDerivedType(tag: DW_TAG_typedef, name: "arg1", scope: !1200, file: !499, line: 167, baseType: !972)
!1200 = distinct !DICompositeType(tag: DW_TAG_structure_type, name: "RType<19, true>", scope: !979, file: !499, line: 134, size: 8, flags: DIFlagTypePassByValue, elements: !4, templateParams: !974, identifier: "_ZTSN11ap_int_baseILi19ELb1EE5RTypeILi19ELb1EEE")
!1201 = !DISubprogram(name: "operator--", linkageName: "_ZN11ap_int_baseILi19ELb1EEmmEi", scope: !979, file: !499, line: 882, type: !1196, isLocal: false, isDefinition: false, scopeLine: 882, flags: DIFlagPrototyped, isOptimized: false)
!1202 = !DISubprogram(name: "operator+", linkageName: "_ZNK11ap_int_baseILi19ELb1EEpsEv", scope: !979, file: !499, line: 891, type: !1203, isLocal: false, isDefinition: false, scopeLine: 891, flags: DIFlagPrototyped, isOptimized: false)
!1203 = !DISubroutineType(types: !1204)
!1204 = !{!1199, !1000}
!1205 = !DISubprogram(name: "operator-", linkageName: "_ZNK11ap_int_baseILi19ELb1EEngEv", scope: !979, file: !499, line: 894, type: !1206, isLocal: false, isDefinition: false, scopeLine: 894, flags: DIFlagPrototyped, isOptimized: false)
!1206 = !DISubroutineType(types: !1207)
!1207 = !{!1208, !1000}
!1208 = !DIDerivedType(tag: DW_TAG_typedef, name: "minus", scope: !1209, file: !499, line: 163, baseType: !1210)
!1209 = distinct !DICompositeType(tag: DW_TAG_structure_type, name: "RType<1, false>", scope: !979, file: !499, line: 134, size: 8, flags: DIFlagTypePassByValue, elements: !4, templateParams: !488, identifier: "_ZTSN11ap_int_baseILi19ELb1EE5RTypeILi1ELb0EEE")
!1210 = !DIDerivedType(tag: DW_TAG_typedef, name: "type", scope: !1211, file: !499, line: 103, baseType: !1214)
!1211 = distinct !DICompositeType(tag: DW_TAG_structure_type, name: "_ap_int_factory<20, true>", file: !499, line: 103, size: 8, flags: DIFlagTypePassByValue, elements: !4, templateParams: !1212, identifier: "_ZTS15_ap_int_factoryILi20ELb1EE")
!1212 = !{!1213, !388}
!1213 = !DITemplateValueParameter(name: "_AP_W2", type: !38, value: i32 20)
!1214 = distinct !DICompositeType(tag: DW_TAG_structure_type, name: "ap_int<20>", file: !436, line: 137, flags: DIFlagFwdDecl, identifier: "_ZTS6ap_intILi20EE")
!1215 = !DISubprogram(name: "operator!", linkageName: "_ZNK11ap_int_baseILi19ELb1EEntEv", scope: !979, file: !499, line: 901, type: !1120, isLocal: false, isDefinition: false, scopeLine: 901, flags: DIFlagPrototyped, isOptimized: false)
!1216 = !DISubprogram(name: "operator~", linkageName: "_ZNK11ap_int_baseILi19ELb1EEcoEv", scope: !979, file: !499, line: 907, type: !1203, isLocal: false, isDefinition: false, scopeLine: 907, flags: DIFlagPrototyped, isOptimized: false)
!1217 = !DISubprogram(name: "range", linkageName: "_ZN11ap_int_baseILi19ELb1EE5rangeEii", scope: !979, file: !499, line: 1045, type: !1218, isLocal: false, isDefinition: false, scopeLine: 1045, flags: DIFlagPrototyped, isOptimized: false)
!1218 = !DISubroutineType(types: !1219)
!1219 = !{!1220, !1005, !38, !38}
!1220 = distinct !DICompositeType(tag: DW_TAG_structure_type, name: "ap_range_ref<19, true>", file: !436, line: 143, flags: DIFlagFwdDecl, identifier: "_ZTS12ap_range_refILi19ELb1EE")
!1221 = !DISubprogram(name: "range", linkageName: "_ZNK11ap_int_baseILi19ELb1EE5rangeEii", scope: !979, file: !499, line: 1052, type: !1222, isLocal: false, isDefinition: false, scopeLine: 1052, flags: DIFlagPrototyped, isOptimized: false)
!1222 = !DISubroutineType(types: !1223)
!1223 = !{!1220, !1000, !38, !38}
!1224 = !DISubprogram(name: "range", linkageName: "_ZN11ap_int_baseILi19ELb1EE5rangeEv", scope: !979, file: !499, line: 1076, type: !1225, isLocal: false, isDefinition: false, scopeLine: 1076, flags: DIFlagPrototyped, isOptimized: false)
!1225 = !DISubroutineType(types: !1226)
!1226 = !{!1220, !1005}
!1227 = !DISubprogram(name: "range", linkageName: "_ZNK11ap_int_baseILi19ELb1EE5rangeEv", scope: !979, file: !499, line: 1080, type: !1228, isLocal: false, isDefinition: false, scopeLine: 1080, flags: DIFlagPrototyped, isOptimized: false)
!1228 = !DISubroutineType(types: !1229)
!1229 = !{!1220, !1000}
!1230 = !DISubprogram(name: "operator()", linkageName: "_ZN11ap_int_baseILi19ELb1EEclEii", scope: !979, file: !499, line: 1084, type: !1218, isLocal: false, isDefinition: false, scopeLine: 1084, flags: DIFlagPrototyped, isOptimized: false)
!1231 = !DISubprogram(name: "operator()", linkageName: "_ZNK11ap_int_baseILi19ELb1EEclEii", scope: !979, file: !499, line: 1088, type: !1222, isLocal: false, isDefinition: false, scopeLine: 1088, flags: DIFlagPrototyped, isOptimized: false)
!1232 = !DISubprogram(name: "operator[]", linkageName: "_ZN11ap_int_baseILi19ELb1EEixEi", scope: !979, file: !499, line: 1126, type: !1233, isLocal: false, isDefinition: false, scopeLine: 1126, flags: DIFlagPrototyped, isOptimized: false)
!1233 = !DISubroutineType(types: !1234)
!1234 = !{!1235, !1005, !38}
!1235 = distinct !DICompositeType(tag: DW_TAG_structure_type, name: "ap_bit_ref<19, true>", file: !436, line: 146, flags: DIFlagFwdDecl, identifier: "_ZTS10ap_bit_refILi19ELb1EE")
!1236 = !DISubprogram(name: "operator[]", linkageName: "_ZNK11ap_int_baseILi19ELb1EEixEi", scope: !979, file: !499, line: 1142, type: !1175, isLocal: false, isDefinition: false, scopeLine: 1142, flags: DIFlagPrototyped, isOptimized: false)
!1237 = !DISubprogram(name: "bit", linkageName: "_ZN11ap_int_baseILi19ELb1EE3bitEi", scope: !979, file: !499, line: 1155, type: !1233, isLocal: false, isDefinition: false, scopeLine: 1155, flags: DIFlagPrototyped, isOptimized: false)
!1238 = !DISubprogram(name: "bit", linkageName: "_ZNK11ap_int_baseILi19ELb1EE3bitEi", scope: !979, file: !499, line: 1170, type: !1175, isLocal: false, isDefinition: false, scopeLine: 1170, flags: DIFlagPrototyped, isOptimized: false)
!1239 = !DISubprogram(name: "countLeadingZeros", linkageName: "_ZNK11ap_int_baseILi19ELb1EE17countLeadingZerosEv", scope: !979, file: !499, line: 1193, type: !998, isLocal: false, isDefinition: false, scopeLine: 1193, flags: DIFlagPrototyped, isOptimized: false)
!1240 = !DISubprogram(name: "and_reduce", linkageName: "_ZNK11ap_int_baseILi19ELb1EE10and_reduceEv", scope: !979, file: !499, line: 1413, type: !1120, isLocal: false, isDefinition: false, scopeLine: 1413, flags: DIFlagPrototyped, isOptimized: false)
!1241 = !DISubprogram(name: "nand_reduce", linkageName: "_ZNK11ap_int_baseILi19ELb1EE11nand_reduceEv", scope: !979, file: !499, line: 1414, type: !1120, isLocal: false, isDefinition: false, scopeLine: 1414, flags: DIFlagPrototyped, isOptimized: false)
!1242 = !DISubprogram(name: "or_reduce", linkageName: "_ZNK11ap_int_baseILi19ELb1EE9or_reduceEv", scope: !979, file: !499, line: 1415, type: !1120, isLocal: false, isDefinition: false, scopeLine: 1415, flags: DIFlagPrototyped, isOptimized: false)
!1243 = !DISubprogram(name: "nor_reduce", linkageName: "_ZNK11ap_int_baseILi19ELb1EE10nor_reduceEv", scope: !979, file: !499, line: 1416, type: !1120, isLocal: false, isDefinition: false, scopeLine: 1416, flags: DIFlagPrototyped, isOptimized: false)
!1244 = !DISubprogram(name: "xor_reduce", linkageName: "_ZNK11ap_int_baseILi19ELb1EE10xor_reduceEv", scope: !979, file: !499, line: 1417, type: !1120, isLocal: false, isDefinition: false, scopeLine: 1417, flags: DIFlagPrototyped, isOptimized: false)
!1245 = !DISubprogram(name: "xnor_reduce", linkageName: "_ZNK11ap_int_baseILi19ELb1EE11xnor_reduceEv", scope: !979, file: !499, line: 1418, type: !1120, isLocal: false, isDefinition: false, scopeLine: 1418, flags: DIFlagPrototyped, isOptimized: false)
!1246 = !DISubprogram(name: "to_string", linkageName: "_ZNK11ap_int_baseILi19ELb1EE9to_stringEab", scope: !979, file: !499, line: 1433, type: !1247, isLocal: false, isDefinition: false, scopeLine: 1433, flags: DIFlagPrototyped, isOptimized: false)
!1247 = !DISubroutineType(types: !1248)
!1248 = !{!1249, !1000, !90, !40}
!1249 = !DIDerivedType(tag: DW_TAG_pointer_type, baseType: !86, size: 64)
!1250 = !{!1251, !39}
!1251 = !DITemplateValueParameter(name: "_AP_W", type: !38, value: i32 19)
!1252 = !DISubprogram(name: "ap_int", scope: !976, file: !392, line: 21, type: !1253, isLocal: false, isDefinition: false, scopeLine: 21, flags: DIFlagPrototyped, isOptimized: false)
!1253 = !DISubroutineType(types: !1254)
!1254 = !{null, !1255}
!1255 = !DIDerivedType(tag: DW_TAG_pointer_type, baseType: !976, size: 64, flags: DIFlagArtificial | DIFlagObjectPointer)
!1256 = !DISubprogram(name: "ap_int", scope: !976, file: !392, line: 57, type: !1257, isLocal: false, isDefinition: false, scopeLine: 57, flags: DIFlagPrototyped, isOptimized: false)
!1257 = !DISubroutineType(types: !1258)
!1258 = !{null, !1255, !1259, !40}
!1259 = !DIBasicType(name: "uint19", size: 19, encoding: DW_ATE_unsigned)
!1260 = !DISubprogram(name: "ap_int", scope: !976, file: !392, line: 127, type: !1261, isLocal: false, isDefinition: false, scopeLine: 127, flags: DIFlagPrototyped, isOptimized: false)
!1261 = !DISubroutineType(types: !1262)
!1262 = !{null, !1255, !40}
!1263 = !DISubprogram(name: "ap_int", scope: !976, file: !392, line: 128, type: !1264, isLocal: false, isDefinition: false, scopeLine: 128, flags: DIFlagPrototyped, isOptimized: false)
!1264 = !DISubroutineType(types: !1265)
!1265 = !{null, !1255, !86}
!1266 = !DISubprogram(name: "ap_int", scope: !976, file: !392, line: 129, type: !1267, isLocal: false, isDefinition: false, scopeLine: 129, flags: DIFlagPrototyped, isOptimized: false)
!1267 = !DISubroutineType(types: !1268)
!1268 = !{null, !1255, !90}
!1269 = !DISubprogram(name: "ap_int", scope: !976, file: !392, line: 130, type: !1270, isLocal: false, isDefinition: false, scopeLine: 130, flags: DIFlagPrototyped, isOptimized: false)
!1270 = !DISubroutineType(types: !1271)
!1271 = !{null, !1255, !106}
!1272 = !DISubprogram(name: "ap_int", scope: !976, file: !392, line: 131, type: !1273, isLocal: false, isDefinition: false, scopeLine: 131, flags: DIFlagPrototyped, isOptimized: false)
!1273 = !DISubroutineType(types: !1274)
!1274 = !{null, !1255, !28}
!1275 = !DISubprogram(name: "ap_int", scope: !976, file: !392, line: 132, type: !1276, isLocal: false, isDefinition: false, scopeLine: 132, flags: DIFlagPrototyped, isOptimized: false)
!1276 = !DISubroutineType(types: !1277)
!1277 = !{null, !1255, !115}
!1278 = !DISubprogram(name: "ap_int", scope: !976, file: !392, line: 133, type: !1279, isLocal: false, isDefinition: false, scopeLine: 133, flags: DIFlagPrototyped, isOptimized: false)
!1279 = !DISubroutineType(types: !1280)
!1280 = !{null, !1255, !38}
!1281 = !DISubprogram(name: "ap_int", scope: !976, file: !392, line: 134, type: !1282, isLocal: false, isDefinition: false, scopeLine: 134, flags: DIFlagPrototyped, isOptimized: false)
!1282 = !DISubroutineType(types: !1283)
!1283 = !{null, !1255, !123}
!1284 = !DISubprogram(name: "ap_int", scope: !976, file: !392, line: 135, type: !1285, isLocal: false, isDefinition: false, scopeLine: 135, flags: DIFlagPrototyped, isOptimized: false)
!1285 = !DISubroutineType(types: !1286)
!1286 = !{null, !1255, !128}
!1287 = !DISubprogram(name: "ap_int", scope: !976, file: !392, line: 136, type: !1288, isLocal: false, isDefinition: false, scopeLine: 136, flags: DIFlagPrototyped, isOptimized: false)
!1288 = !DISubroutineType(types: !1289)
!1289 = !{null, !1255, !133}
!1290 = !DISubprogram(name: "ap_int", scope: !976, file: !392, line: 137, type: !1291, isLocal: false, isDefinition: false, scopeLine: 137, flags: DIFlagPrototyped, isOptimized: false)
!1291 = !DISubroutineType(types: !1292)
!1292 = !{null, !1255, !435}
!1293 = !DISubprogram(name: "ap_int", scope: !976, file: !392, line: 138, type: !1294, isLocal: false, isDefinition: false, scopeLine: 138, flags: DIFlagPrototyped, isOptimized: false)
!1294 = !DISubroutineType(types: !1295)
!1295 = !{null, !1255, !440}
!1296 = !DISubprogram(name: "ap_int", scope: !976, file: !392, line: 140, type: !1297, isLocal: false, isDefinition: false, scopeLine: 140, flags: DIFlagPrototyped, isOptimized: false)
!1297 = !DISubroutineType(types: !1298)
!1298 = !{null, !1255, !149}
!1299 = !DISubprogram(name: "ap_int", scope: !976, file: !392, line: 141, type: !1300, isLocal: false, isDefinition: false, scopeLine: 141, flags: DIFlagPrototyped, isOptimized: false)
!1300 = !DISubroutineType(types: !1301)
!1301 = !{null, !1255, !153}
!1302 = !DISubprogram(name: "ap_int", scope: !976, file: !392, line: 142, type: !1303, isLocal: false, isDefinition: false, scopeLine: 142, flags: DIFlagPrototyped, isOptimized: false)
!1303 = !DISubroutineType(types: !1304)
!1304 = !{null, !1255, !450}
!1305 = !DISubprogram(name: "ap_int", scope: !976, file: !392, line: 145, type: !1306, isLocal: false, isDefinition: false, scopeLine: 145, flags: DIFlagPrototyped, isOptimized: false)
!1306 = !DISubroutineType(types: !1307)
!1307 = !{null, !1255, !84}
!1308 = !DISubprogram(name: "ap_int", scope: !976, file: !392, line: 147, type: !1309, isLocal: false, isDefinition: false, scopeLine: 147, flags: DIFlagPrototyped, isOptimized: false)
!1309 = !DISubroutineType(types: !1310)
!1310 = !{null, !1255, !84, !90}
!1311 = !DISubprogram(name: "operator=", linkageName: "_ZN6ap_intILi19EEaSERKS0_", scope: !976, file: !392, line: 152, type: !1312, isLocal: false, isDefinition: false, scopeLine: 152, flags: DIFlagPrototyped, isOptimized: false)
!1312 = !DISubroutineType(types: !1313)
!1313 = !{!1314, !1255, !1315}
!1314 = !DIDerivedType(tag: DW_TAG_reference_type, baseType: !976, size: 64)
!1315 = !DIDerivedType(tag: DW_TAG_reference_type, baseType: !1316, size: 64)
!1316 = !DIDerivedType(tag: DW_TAG_const_type, baseType: !976)
!1317 = !DISubprogram(name: "operator=", linkageName: "_ZN6ap_intILi19EEaSERVKS0_", scope: !976, file: !392, line: 161, type: !1318, isLocal: false, isDefinition: false, scopeLine: 161, flags: DIFlagPrototyped, isOptimized: false)
!1318 = !DISubroutineType(types: !1319)
!1319 = !{!1314, !1255, !1320}
!1320 = !DIDerivedType(tag: DW_TAG_reference_type, baseType: !1321, size: 64)
!1321 = !DIDerivedType(tag: DW_TAG_const_type, baseType: !1322)
!1322 = !DIDerivedType(tag: DW_TAG_volatile_type, baseType: !976)
!1323 = !DISubprogram(name: "operator=", linkageName: "_ZNV6ap_intILi19EEaSERKS0_", scope: !976, file: !392, line: 167, type: !1324, isLocal: false, isDefinition: false, scopeLine: 167, flags: DIFlagPrototyped, isOptimized: false)
!1324 = !DISubroutineType(types: !1325)
!1325 = !{null, !1326, !1315}
!1326 = !DIDerivedType(tag: DW_TAG_pointer_type, baseType: !1322, size: 64, flags: DIFlagArtificial | DIFlagObjectPointer)
!1327 = !DISubprogram(name: "operator=", linkageName: "_ZNV6ap_intILi19EEaSERVKS0_", scope: !976, file: !392, line: 171, type: !1328, isLocal: false, isDefinition: false, scopeLine: 171, flags: DIFlagPrototyped, isOptimized: false)
!1328 = !DISubroutineType(types: !1329)
!1329 = !{null, !1326, !1320}
!1330 = !{!1251}
!1331 = !DISubprogram(name: "operator!", linkageName: "_ZNK11ap_int_baseILi18ELb1EEntEv", scope: !741, file: !499, line: 901, type: !882, isLocal: false, isDefinition: false, scopeLine: 901, flags: DIFlagPrototyped, isOptimized: false)
!1332 = !DISubprogram(name: "operator~", linkageName: "_ZNK11ap_int_baseILi18ELb1EEcoEv", scope: !741, file: !499, line: 907, type: !965, isLocal: false, isDefinition: false, scopeLine: 907, flags: DIFlagPrototyped, isOptimized: false)
!1333 = !DISubprogram(name: "range", linkageName: "_ZN11ap_int_baseILi18ELb1EE5rangeEii", scope: !741, file: !499, line: 1045, type: !1334, isLocal: false, isDefinition: false, scopeLine: 1045, flags: DIFlagPrototyped, isOptimized: false)
!1334 = !DISubroutineType(types: !1335)
!1335 = !{!1336, !767, !38, !38}
!1336 = distinct !DICompositeType(tag: DW_TAG_structure_type, name: "ap_range_ref<18, true>", file: !436, line: 143, flags: DIFlagFwdDecl, identifier: "_ZTS12ap_range_refILi18ELb1EE")
!1337 = !DISubprogram(name: "range", linkageName: "_ZNK11ap_int_baseILi18ELb1EE5rangeEii", scope: !741, file: !499, line: 1052, type: !1338, isLocal: false, isDefinition: false, scopeLine: 1052, flags: DIFlagPrototyped, isOptimized: false)
!1338 = !DISubroutineType(types: !1339)
!1339 = !{!1336, !762, !38, !38}
!1340 = !DISubprogram(name: "range", linkageName: "_ZN11ap_int_baseILi18ELb1EE5rangeEv", scope: !741, file: !499, line: 1076, type: !1341, isLocal: false, isDefinition: false, scopeLine: 1076, flags: DIFlagPrototyped, isOptimized: false)
!1341 = !DISubroutineType(types: !1342)
!1342 = !{!1336, !767}
!1343 = !DISubprogram(name: "range", linkageName: "_ZNK11ap_int_baseILi18ELb1EE5rangeEv", scope: !741, file: !499, line: 1080, type: !1344, isLocal: false, isDefinition: false, scopeLine: 1080, flags: DIFlagPrototyped, isOptimized: false)
!1344 = !DISubroutineType(types: !1345)
!1345 = !{!1336, !762}
!1346 = !DISubprogram(name: "operator()", linkageName: "_ZN11ap_int_baseILi18ELb1EEclEii", scope: !741, file: !499, line: 1084, type: !1334, isLocal: false, isDefinition: false, scopeLine: 1084, flags: DIFlagPrototyped, isOptimized: false)
!1347 = !DISubprogram(name: "operator()", linkageName: "_ZNK11ap_int_baseILi18ELb1EEclEii", scope: !741, file: !499, line: 1088, type: !1338, isLocal: false, isDefinition: false, scopeLine: 1088, flags: DIFlagPrototyped, isOptimized: false)
!1348 = !DISubprogram(name: "operator[]", linkageName: "_ZN11ap_int_baseILi18ELb1EEixEi", scope: !741, file: !499, line: 1126, type: !1349, isLocal: false, isDefinition: false, scopeLine: 1126, flags: DIFlagPrototyped, isOptimized: false)
!1349 = !DISubroutineType(types: !1350)
!1350 = !{!1351, !767, !38}
!1351 = distinct !DICompositeType(tag: DW_TAG_structure_type, name: "ap_bit_ref<18, true>", file: !436, line: 146, flags: DIFlagFwdDecl, identifier: "_ZTS10ap_bit_refILi18ELb1EE")
!1352 = !DISubprogram(name: "operator[]", linkageName: "_ZNK11ap_int_baseILi18ELb1EEixEi", scope: !741, file: !499, line: 1142, type: !937, isLocal: false, isDefinition: false, scopeLine: 1142, flags: DIFlagPrototyped, isOptimized: false)
!1353 = !DISubprogram(name: "bit", linkageName: "_ZN11ap_int_baseILi18ELb1EE3bitEi", scope: !741, file: !499, line: 1155, type: !1349, isLocal: false, isDefinition: false, scopeLine: 1155, flags: DIFlagPrototyped, isOptimized: false)
!1354 = !DISubprogram(name: "bit", linkageName: "_ZNK11ap_int_baseILi18ELb1EE3bitEi", scope: !741, file: !499, line: 1170, type: !937, isLocal: false, isDefinition: false, scopeLine: 1170, flags: DIFlagPrototyped, isOptimized: false)
!1355 = !DISubprogram(name: "countLeadingZeros", linkageName: "_ZNK11ap_int_baseILi18ELb1EE17countLeadingZerosEv", scope: !741, file: !499, line: 1193, type: !760, isLocal: false, isDefinition: false, scopeLine: 1193, flags: DIFlagPrototyped, isOptimized: false)
!1356 = !DISubprogram(name: "and_reduce", linkageName: "_ZNK11ap_int_baseILi18ELb1EE10and_reduceEv", scope: !741, file: !499, line: 1413, type: !882, isLocal: false, isDefinition: false, scopeLine: 1413, flags: DIFlagPrototyped, isOptimized: false)
!1357 = !DISubprogram(name: "nand_reduce", linkageName: "_ZNK11ap_int_baseILi18ELb1EE11nand_reduceEv", scope: !741, file: !499, line: 1414, type: !882, isLocal: false, isDefinition: false, scopeLine: 1414, flags: DIFlagPrototyped, isOptimized: false)
!1358 = !DISubprogram(name: "or_reduce", linkageName: "_ZNK11ap_int_baseILi18ELb1EE9or_reduceEv", scope: !741, file: !499, line: 1415, type: !882, isLocal: false, isDefinition: false, scopeLine: 1415, flags: DIFlagPrototyped, isOptimized: false)
!1359 = !DISubprogram(name: "nor_reduce", linkageName: "_ZNK11ap_int_baseILi18ELb1EE10nor_reduceEv", scope: !741, file: !499, line: 1416, type: !882, isLocal: false, isDefinition: false, scopeLine: 1416, flags: DIFlagPrototyped, isOptimized: false)
!1360 = !DISubprogram(name: "xor_reduce", linkageName: "_ZNK11ap_int_baseILi18ELb1EE10xor_reduceEv", scope: !741, file: !499, line: 1417, type: !882, isLocal: false, isDefinition: false, scopeLine: 1417, flags: DIFlagPrototyped, isOptimized: false)
!1361 = !DISubprogram(name: "xnor_reduce", linkageName: "_ZNK11ap_int_baseILi18ELb1EE11xnor_reduceEv", scope: !741, file: !499, line: 1418, type: !882, isLocal: false, isDefinition: false, scopeLine: 1418, flags: DIFlagPrototyped, isOptimized: false)
!1362 = !DISubprogram(name: "to_string", linkageName: "_ZNK11ap_int_baseILi18ELb1EE9to_stringEab", scope: !741, file: !499, line: 1433, type: !1363, isLocal: false, isDefinition: false, scopeLine: 1433, flags: DIFlagPrototyped, isOptimized: false)
!1363 = !DISubroutineType(types: !1364)
!1364 = !{!1249, !762, !90, !40}
!1365 = !{!1366, !39}
!1366 = !DITemplateValueParameter(name: "_AP_W", type: !38, value: i32 18)
!1367 = !DISubprogram(name: "ap_int", scope: !738, file: !392, line: 21, type: !1368, isLocal: false, isDefinition: false, scopeLine: 21, flags: DIFlagPrototyped, isOptimized: false)
!1368 = !DISubroutineType(types: !1369)
!1369 = !{null, !1370}
!1370 = !DIDerivedType(tag: DW_TAG_pointer_type, baseType: !738, size: 64, flags: DIFlagArtificial | DIFlagObjectPointer)
!1371 = !DISubprogram(name: "ap_int", scope: !738, file: !392, line: 57, type: !1372, isLocal: false, isDefinition: false, scopeLine: 57, flags: DIFlagPrototyped, isOptimized: false)
!1372 = !DISubroutineType(types: !1373)
!1373 = !{null, !1370, !1374, !40}
!1374 = !DIBasicType(name: "uint18", size: 18, encoding: DW_ATE_unsigned)
!1375 = !DISubprogram(name: "ap_int", scope: !738, file: !392, line: 127, type: !1376, isLocal: false, isDefinition: false, scopeLine: 127, flags: DIFlagPrototyped, isOptimized: false)
!1376 = !DISubroutineType(types: !1377)
!1377 = !{null, !1370, !40}
!1378 = !DISubprogram(name: "ap_int", scope: !738, file: !392, line: 128, type: !1379, isLocal: false, isDefinition: false, scopeLine: 128, flags: DIFlagPrototyped, isOptimized: false)
!1379 = !DISubroutineType(types: !1380)
!1380 = !{null, !1370, !86}
!1381 = !DISubprogram(name: "ap_int", scope: !738, file: !392, line: 129, type: !1382, isLocal: false, isDefinition: false, scopeLine: 129, flags: DIFlagPrototyped, isOptimized: false)
!1382 = !DISubroutineType(types: !1383)
!1383 = !{null, !1370, !90}
!1384 = !DISubprogram(name: "ap_int", scope: !738, file: !392, line: 130, type: !1385, isLocal: false, isDefinition: false, scopeLine: 130, flags: DIFlagPrototyped, isOptimized: false)
!1385 = !DISubroutineType(types: !1386)
!1386 = !{null, !1370, !106}
!1387 = !DISubprogram(name: "ap_int", scope: !738, file: !392, line: 131, type: !1388, isLocal: false, isDefinition: false, scopeLine: 131, flags: DIFlagPrototyped, isOptimized: false)
!1388 = !DISubroutineType(types: !1389)
!1389 = !{null, !1370, !28}
!1390 = !DISubprogram(name: "ap_int", scope: !738, file: !392, line: 132, type: !1391, isLocal: false, isDefinition: false, scopeLine: 132, flags: DIFlagPrototyped, isOptimized: false)
!1391 = !DISubroutineType(types: !1392)
!1392 = !{null, !1370, !115}
!1393 = !DISubprogram(name: "ap_int", scope: !738, file: !392, line: 133, type: !1394, isLocal: false, isDefinition: false, scopeLine: 133, flags: DIFlagPrototyped, isOptimized: false)
!1394 = !DISubroutineType(types: !1395)
!1395 = !{null, !1370, !38}
!1396 = !DISubprogram(name: "ap_int", scope: !738, file: !392, line: 134, type: !1397, isLocal: false, isDefinition: false, scopeLine: 134, flags: DIFlagPrototyped, isOptimized: false)
!1397 = !DISubroutineType(types: !1398)
!1398 = !{null, !1370, !123}
!1399 = !DISubprogram(name: "ap_int", scope: !738, file: !392, line: 135, type: !1400, isLocal: false, isDefinition: false, scopeLine: 135, flags: DIFlagPrototyped, isOptimized: false)
!1400 = !DISubroutineType(types: !1401)
!1401 = !{null, !1370, !128}
!1402 = !DISubprogram(name: "ap_int", scope: !738, file: !392, line: 136, type: !1403, isLocal: false, isDefinition: false, scopeLine: 136, flags: DIFlagPrototyped, isOptimized: false)
!1403 = !DISubroutineType(types: !1404)
!1404 = !{null, !1370, !133}
!1405 = !DISubprogram(name: "ap_int", scope: !738, file: !392, line: 137, type: !1406, isLocal: false, isDefinition: false, scopeLine: 137, flags: DIFlagPrototyped, isOptimized: false)
!1406 = !DISubroutineType(types: !1407)
!1407 = !{null, !1370, !435}
!1408 = !DISubprogram(name: "ap_int", scope: !738, file: !392, line: 138, type: !1409, isLocal: false, isDefinition: false, scopeLine: 138, flags: DIFlagPrototyped, isOptimized: false)
!1409 = !DISubroutineType(types: !1410)
!1410 = !{null, !1370, !440}
!1411 = !DISubprogram(name: "ap_int", scope: !738, file: !392, line: 140, type: !1412, isLocal: false, isDefinition: false, scopeLine: 140, flags: DIFlagPrototyped, isOptimized: false)
!1412 = !DISubroutineType(types: !1413)
!1413 = !{null, !1370, !149}
!1414 = !DISubprogram(name: "ap_int", scope: !738, file: !392, line: 141, type: !1415, isLocal: false, isDefinition: false, scopeLine: 141, flags: DIFlagPrototyped, isOptimized: false)
!1415 = !DISubroutineType(types: !1416)
!1416 = !{null, !1370, !153}
!1417 = !DISubprogram(name: "ap_int", scope: !738, file: !392, line: 142, type: !1418, isLocal: false, isDefinition: false, scopeLine: 142, flags: DIFlagPrototyped, isOptimized: false)
!1418 = !DISubroutineType(types: !1419)
!1419 = !{null, !1370, !450}
!1420 = !DISubprogram(name: "ap_int", scope: !738, file: !392, line: 145, type: !1421, isLocal: false, isDefinition: false, scopeLine: 145, flags: DIFlagPrototyped, isOptimized: false)
!1421 = !DISubroutineType(types: !1422)
!1422 = !{null, !1370, !84}
!1423 = !DISubprogram(name: "ap_int", scope: !738, file: !392, line: 147, type: !1424, isLocal: false, isDefinition: false, scopeLine: 147, flags: DIFlagPrototyped, isOptimized: false)
!1424 = !DISubroutineType(types: !1425)
!1425 = !{null, !1370, !84, !90}
!1426 = !DISubprogram(name: "operator=", linkageName: "_ZN6ap_intILi18EEaSERKS0_", scope: !738, file: !392, line: 152, type: !1427, isLocal: false, isDefinition: false, scopeLine: 152, flags: DIFlagPrototyped, isOptimized: false)
!1427 = !DISubroutineType(types: !1428)
!1428 = !{!1429, !1370, !1430}
!1429 = !DIDerivedType(tag: DW_TAG_reference_type, baseType: !738, size: 64)
!1430 = !DIDerivedType(tag: DW_TAG_reference_type, baseType: !1431, size: 64)
!1431 = !DIDerivedType(tag: DW_TAG_const_type, baseType: !738)
!1432 = !DISubprogram(name: "operator=", linkageName: "_ZN6ap_intILi18EEaSERVKS0_", scope: !738, file: !392, line: 161, type: !1433, isLocal: false, isDefinition: false, scopeLine: 161, flags: DIFlagPrototyped, isOptimized: false)
!1433 = !DISubroutineType(types: !1434)
!1434 = !{!1429, !1370, !1435}
!1435 = !DIDerivedType(tag: DW_TAG_reference_type, baseType: !1436, size: 64)
!1436 = !DIDerivedType(tag: DW_TAG_const_type, baseType: !1437)
!1437 = !DIDerivedType(tag: DW_TAG_volatile_type, baseType: !738)
!1438 = !DISubprogram(name: "operator=", linkageName: "_ZNV6ap_intILi18EEaSERKS0_", scope: !738, file: !392, line: 167, type: !1439, isLocal: false, isDefinition: false, scopeLine: 167, flags: DIFlagPrototyped, isOptimized: false)
!1439 = !DISubroutineType(types: !1440)
!1440 = !{null, !1441, !1430}
!1441 = !DIDerivedType(tag: DW_TAG_pointer_type, baseType: !1437, size: 64, flags: DIFlagArtificial | DIFlagObjectPointer)
!1442 = !DISubprogram(name: "operator=", linkageName: "_ZNV6ap_intILi18EEaSERVKS0_", scope: !738, file: !392, line: 171, type: !1443, isLocal: false, isDefinition: false, scopeLine: 171, flags: DIFlagPrototyped, isOptimized: false)
!1443 = !DISubroutineType(types: !1444)
!1444 = !{null, !1441, !1435}
!1445 = !{!1366}
!1446 = !DISubprogram(name: "operator!", linkageName: "_ZNK11ap_int_baseILi17ELb1EEntEv", scope: !498, file: !499, line: 901, type: !643, isLocal: false, isDefinition: false, scopeLine: 901, flags: DIFlagPrototyped, isOptimized: false)
!1447 = !DISubprogram(name: "operator~", linkageName: "_ZNK11ap_int_baseILi17ELb1EEcoEv", scope: !498, file: !499, line: 907, type: !727, isLocal: false, isDefinition: false, scopeLine: 907, flags: DIFlagPrototyped, isOptimized: false)
!1448 = !DISubprogram(name: "range", linkageName: "_ZN11ap_int_baseILi17ELb1EE5rangeEii", scope: !498, file: !499, line: 1045, type: !1449, isLocal: false, isDefinition: false, scopeLine: 1045, flags: DIFlagPrototyped, isOptimized: false)
!1449 = !DISubroutineType(types: !1450)
!1450 = !{!1451, !525, !38, !38}
!1451 = distinct !DICompositeType(tag: DW_TAG_structure_type, name: "ap_range_ref<17, true>", file: !436, line: 143, flags: DIFlagFwdDecl, identifier: "_ZTS12ap_range_refILi17ELb1EE")
!1452 = !DISubprogram(name: "range", linkageName: "_ZNK11ap_int_baseILi17ELb1EE5rangeEii", scope: !498, file: !499, line: 1052, type: !1453, isLocal: false, isDefinition: false, scopeLine: 1052, flags: DIFlagPrototyped, isOptimized: false)
!1453 = !DISubroutineType(types: !1454)
!1454 = !{!1451, !520, !38, !38}
!1455 = !DISubprogram(name: "range", linkageName: "_ZN11ap_int_baseILi17ELb1EE5rangeEv", scope: !498, file: !499, line: 1076, type: !1456, isLocal: false, isDefinition: false, scopeLine: 1076, flags: DIFlagPrototyped, isOptimized: false)
!1456 = !DISubroutineType(types: !1457)
!1457 = !{!1451, !525}
!1458 = !DISubprogram(name: "range", linkageName: "_ZNK11ap_int_baseILi17ELb1EE5rangeEv", scope: !498, file: !499, line: 1080, type: !1459, isLocal: false, isDefinition: false, scopeLine: 1080, flags: DIFlagPrototyped, isOptimized: false)
!1459 = !DISubroutineType(types: !1460)
!1460 = !{!1451, !520}
!1461 = !DISubprogram(name: "operator()", linkageName: "_ZN11ap_int_baseILi17ELb1EEclEii", scope: !498, file: !499, line: 1084, type: !1449, isLocal: false, isDefinition: false, scopeLine: 1084, flags: DIFlagPrototyped, isOptimized: false)
!1462 = !DISubprogram(name: "operator()", linkageName: "_ZNK11ap_int_baseILi17ELb1EEclEii", scope: !498, file: !499, line: 1088, type: !1453, isLocal: false, isDefinition: false, scopeLine: 1088, flags: DIFlagPrototyped, isOptimized: false)
!1463 = !DISubprogram(name: "operator[]", linkageName: "_ZN11ap_int_baseILi17ELb1EEixEi", scope: !498, file: !499, line: 1126, type: !1464, isLocal: false, isDefinition: false, scopeLine: 1126, flags: DIFlagPrototyped, isOptimized: false)
!1464 = !DISubroutineType(types: !1465)
!1465 = !{!1466, !525, !38}
!1466 = distinct !DICompositeType(tag: DW_TAG_structure_type, name: "ap_bit_ref<17, true>", file: !1467, line: 761, size: 128, flags: DIFlagTypePassByReference, elements: !1468, templateParams: !1553, identifier: "_ZTS10ap_bit_refILi17ELb1EE")
!1467 = !DIFile(filename: "r:/ci/prod/2022.1/rdi_builds/continuous/2022_04_18_3526262/src/shared/hls/clib/include/header_files\5Cap_int_ref.h", directory: "R:\5Cci\5Cprod\5C2022.1\5Crdi_builds\5Ccontinuous\5C2022_04_18_3526262\5Csrc\5Cshared")
!1468 = !{!1469, !1472, !1473, !1479, !1483, !1488, !1492, !1493, !1497, !1500, !1503, !1506, !1509, !1512, !1515, !1518, !1521, !1524, !1527, !1530, !1533, !1536, !1539, !1542, !1543, !1546, !1547, !1550}
!1469 = !DIDerivedType(tag: DW_TAG_member, name: "d_bv", scope: !1466, file: !1467, line: 766, baseType: !1470, size: 64)
!1470 = !DIDerivedType(tag: DW_TAG_reference_type, baseType: !1471, size: 64)
!1471 = !DIDerivedType(tag: DW_TAG_typedef, name: "ref_type", scope: !1466, file: !1467, line: 765, baseType: !498)
!1472 = !DIDerivedType(tag: DW_TAG_member, name: "d_index", scope: !1466, file: !1467, line: 767, baseType: !38, size: 32, offset: 64)
!1473 = !DISubprogram(name: "ap_bit_ref", scope: !1466, file: !1467, line: 771, type: !1474, isLocal: false, isDefinition: false, scopeLine: 771, flags: DIFlagPrototyped, isOptimized: false)
!1474 = !DISubroutineType(types: !1475)
!1475 = !{null, !1476, !1477}
!1476 = !DIDerivedType(tag: DW_TAG_pointer_type, baseType: !1466, size: 64, flags: DIFlagArtificial | DIFlagObjectPointer)
!1477 = !DIDerivedType(tag: DW_TAG_reference_type, baseType: !1478, size: 64)
!1478 = !DIDerivedType(tag: DW_TAG_const_type, baseType: !1466)
!1479 = !DISubprogram(name: "ap_bit_ref", scope: !1466, file: !1467, line: 774, type: !1480, isLocal: false, isDefinition: false, scopeLine: 774, flags: DIFlagPrototyped, isOptimized: false)
!1480 = !DISubroutineType(types: !1481)
!1481 = !{null, !1476, !1482, !38}
!1482 = !DIDerivedType(tag: DW_TAG_pointer_type, baseType: !1471, size: 64)
!1483 = !DISubprogram(name: "ap_bit_ref", scope: !1466, file: !1467, line: 776, type: !1484, isLocal: false, isDefinition: false, scopeLine: 776, flags: DIFlagPrototyped, isOptimized: false)
!1484 = !DISubroutineType(types: !1485)
!1485 = !{null, !1476, !1486, !38}
!1486 = !DIDerivedType(tag: DW_TAG_pointer_type, baseType: !1487, size: 64)
!1487 = !DIDerivedType(tag: DW_TAG_const_type, baseType: !1471)
!1488 = !DISubprogram(name: "operator bool", linkageName: "_ZNK10ap_bit_refILi17ELb1EEcvbEv", scope: !1466, file: !1467, line: 779, type: !1489, isLocal: false, isDefinition: false, scopeLine: 779, flags: DIFlagPrototyped, isOptimized: false)
!1489 = !DISubroutineType(types: !1490)
!1490 = !{!40, !1491}
!1491 = !DIDerivedType(tag: DW_TAG_pointer_type, baseType: !1478, size: 64, flags: DIFlagArtificial | DIFlagObjectPointer)
!1492 = !DISubprogram(name: "to_bool", linkageName: "_ZNK10ap_bit_refILi17ELb1EE7to_boolEv", scope: !1466, file: !1467, line: 780, type: !1489, isLocal: false, isDefinition: false, scopeLine: 780, flags: DIFlagPrototyped, isOptimized: false)
!1493 = !DISubprogram(name: "operator=", linkageName: "_ZN10ap_bit_refILi17ELb1EEaSEb", scope: !1466, file: !1467, line: 798, type: !1494, isLocal: false, isDefinition: false, scopeLine: 798, flags: DIFlagPrototyped, isOptimized: false)
!1494 = !DISubroutineType(types: !1495)
!1495 = !{!1496, !1476, !40}
!1496 = !DIDerivedType(tag: DW_TAG_reference_type, baseType: !1466, size: 64)
!1497 = !DISubprogram(name: "operator=", linkageName: "_ZN10ap_bit_refILi17ELb1EEaSEc", scope: !1466, file: !1467, line: 799, type: !1498, isLocal: false, isDefinition: false, scopeLine: 799, flags: DIFlagPrototyped, isOptimized: false)
!1498 = !DISubroutineType(types: !1499)
!1499 = !{!1496, !1476, !86}
!1500 = !DISubprogram(name: "operator=", linkageName: "_ZN10ap_bit_refILi17ELb1EEaSEa", scope: !1466, file: !1467, line: 800, type: !1501, isLocal: false, isDefinition: false, scopeLine: 800, flags: DIFlagPrototyped, isOptimized: false)
!1501 = !DISubroutineType(types: !1502)
!1502 = !{!1496, !1476, !90}
!1503 = !DISubprogram(name: "operator=", linkageName: "_ZN10ap_bit_refILi17ELb1EEaSEh", scope: !1466, file: !1467, line: 801, type: !1504, isLocal: false, isDefinition: false, scopeLine: 801, flags: DIFlagPrototyped, isOptimized: false)
!1504 = !DISubroutineType(types: !1505)
!1505 = !{!1496, !1476, !106}
!1506 = !DISubprogram(name: "operator=", linkageName: "_ZN10ap_bit_refILi17ELb1EEaSEs", scope: !1466, file: !1467, line: 802, type: !1507, isLocal: false, isDefinition: false, scopeLine: 802, flags: DIFlagPrototyped, isOptimized: false)
!1507 = !DISubroutineType(types: !1508)
!1508 = !{!1496, !1476, !28}
!1509 = !DISubprogram(name: "operator=", linkageName: "_ZN10ap_bit_refILi17ELb1EEaSEt", scope: !1466, file: !1467, line: 803, type: !1510, isLocal: false, isDefinition: false, scopeLine: 803, flags: DIFlagPrototyped, isOptimized: false)
!1510 = !DISubroutineType(types: !1511)
!1511 = !{!1496, !1476, !115}
!1512 = !DISubprogram(name: "operator=", linkageName: "_ZN10ap_bit_refILi17ELb1EEaSEi", scope: !1466, file: !1467, line: 804, type: !1513, isLocal: false, isDefinition: false, scopeLine: 804, flags: DIFlagPrototyped, isOptimized: false)
!1513 = !DISubroutineType(types: !1514)
!1514 = !{!1496, !1476, !38}
!1515 = !DISubprogram(name: "operator=", linkageName: "_ZN10ap_bit_refILi17ELb1EEaSEj", scope: !1466, file: !1467, line: 805, type: !1516, isLocal: false, isDefinition: false, scopeLine: 805, flags: DIFlagPrototyped, isOptimized: false)
!1516 = !DISubroutineType(types: !1517)
!1517 = !{!1496, !1476, !123}
!1518 = !DISubprogram(name: "operator=", linkageName: "_ZN10ap_bit_refILi17ELb1EEaSEl", scope: !1466, file: !1467, line: 806, type: !1519, isLocal: false, isDefinition: false, scopeLine: 806, flags: DIFlagPrototyped, isOptimized: false)
!1519 = !DISubroutineType(types: !1520)
!1520 = !{!1496, !1476, !128}
!1521 = !DISubprogram(name: "operator=", linkageName: "_ZN10ap_bit_refILi17ELb1EEaSEm", scope: !1466, file: !1467, line: 807, type: !1522, isLocal: false, isDefinition: false, scopeLine: 807, flags: DIFlagPrototyped, isOptimized: false)
!1522 = !DISubroutineType(types: !1523)
!1523 = !{!1496, !1476, !133}
!1524 = !DISubprogram(name: "operator=", linkageName: "_ZN10ap_bit_refILi17ELb1EEaSEx", scope: !1466, file: !1467, line: 808, type: !1525, isLocal: false, isDefinition: false, scopeLine: 808, flags: DIFlagPrototyped, isOptimized: false)
!1525 = !DISubroutineType(types: !1526)
!1526 = !{!1496, !1476, !435}
!1527 = !DISubprogram(name: "operator=", linkageName: "_ZN10ap_bit_refILi17ELb1EEaSEy", scope: !1466, file: !1467, line: 809, type: !1528, isLocal: false, isDefinition: false, scopeLine: 809, flags: DIFlagPrototyped, isOptimized: false)
!1528 = !DISubroutineType(types: !1529)
!1529 = !{!1496, !1476, !440}
!1530 = !DISubprogram(name: "operator=", linkageName: "_ZN10ap_bit_refILi17ELb1EEaSEDh", scope: !1466, file: !1467, line: 820, type: !1531, isLocal: false, isDefinition: false, scopeLine: 820, flags: DIFlagPrototyped, isOptimized: false)
!1531 = !DISubroutineType(types: !1532)
!1532 = !{!1496, !1476, !450}
!1533 = !DISubprogram(name: "operator=", linkageName: "_ZN10ap_bit_refILi17ELb1EEaSEf", scope: !1466, file: !1467, line: 821, type: !1534, isLocal: false, isDefinition: false, scopeLine: 821, flags: DIFlagPrototyped, isOptimized: false)
!1534 = !DISubroutineType(types: !1535)
!1535 = !{!1496, !1476, !153}
!1536 = !DISubprogram(name: "operator=", linkageName: "_ZN10ap_bit_refILi17ELb1EEaSEd", scope: !1466, file: !1467, line: 822, type: !1537, isLocal: false, isDefinition: false, scopeLine: 822, flags: DIFlagPrototyped, isOptimized: false)
!1537 = !DISubroutineType(types: !1538)
!1538 = !{!1496, !1476, !149}
!1539 = !DISubprogram(name: "operator=", linkageName: "_ZN10ap_bit_refILi17ELb1EEaSERKS0_", scope: !1466, file: !1467, line: 839, type: !1540, isLocal: false, isDefinition: false, scopeLine: 839, flags: DIFlagPrototyped, isOptimized: false)
!1540 = !DISubroutineType(types: !1541)
!1541 = !{!1496, !1476, !1477}
!1542 = !DISubprogram(name: "get", linkageName: "_ZNK10ap_bit_refILi17ELb1EE3getEv", scope: !1466, file: !1467, line: 959, type: !1489, isLocal: false, isDefinition: false, scopeLine: 959, flags: DIFlagPrototyped, isOptimized: false)
!1543 = !DISubprogram(name: "get", linkageName: "_ZN10ap_bit_refILi17ELb1EE3getEv", scope: !1466, file: !1467, line: 961, type: !1544, isLocal: false, isDefinition: false, scopeLine: 961, flags: DIFlagPrototyped, isOptimized: false)
!1544 = !DISubroutineType(types: !1545)
!1545 = !{!40, !1476}
!1546 = !DISubprogram(name: "operator~", linkageName: "_ZNK10ap_bit_refILi17ELb1EEcoEv", scope: !1466, file: !1467, line: 968, type: !1489, isLocal: false, isDefinition: false, scopeLine: 968, flags: DIFlagPrototyped, isOptimized: false)
!1547 = !DISubprogram(name: "length", linkageName: "_ZNK10ap_bit_refILi17ELb1EE6lengthEv", scope: !1466, file: !1467, line: 973, type: !1548, isLocal: false, isDefinition: false, scopeLine: 973, flags: DIFlagPrototyped, isOptimized: false)
!1548 = !DISubroutineType(types: !1549)
!1549 = !{!38, !1491}
!1550 = !DISubprogram(name: "to_string", linkageName: "_ZNK10ap_bit_refILi17ELb1EE9to_stringEv", scope: !1466, file: !1467, line: 979, type: !1551, isLocal: false, isDefinition: false, scopeLine: 979, flags: DIFlagPrototyped, isOptimized: false)
!1551 = !DISubroutineType(types: !1552)
!1552 = !{!1249, !1491}
!1553 = !{!1554, !39}
!1554 = !DITemplateValueParameter(name: "_AP_W", type: !38, value: i32 17)
!1555 = !DISubprogram(name: "operator[]", linkageName: "_ZNK11ap_int_baseILi17ELb1EEixEi", scope: !498, file: !499, line: 1142, type: !698, isLocal: false, isDefinition: false, scopeLine: 1142, flags: DIFlagPrototyped, isOptimized: false)
!1556 = !DISubprogram(name: "bit", linkageName: "_ZN11ap_int_baseILi17ELb1EE3bitEi", scope: !498, file: !499, line: 1155, type: !1464, isLocal: false, isDefinition: false, scopeLine: 1155, flags: DIFlagPrototyped, isOptimized: false)
!1557 = !DISubprogram(name: "bit", linkageName: "_ZNK11ap_int_baseILi17ELb1EE3bitEi", scope: !498, file: !499, line: 1170, type: !698, isLocal: false, isDefinition: false, scopeLine: 1170, flags: DIFlagPrototyped, isOptimized: false)
!1558 = !DISubprogram(name: "countLeadingZeros", linkageName: "_ZNK11ap_int_baseILi17ELb1EE17countLeadingZerosEv", scope: !498, file: !499, line: 1193, type: !518, isLocal: false, isDefinition: false, scopeLine: 1193, flags: DIFlagPrototyped, isOptimized: false)
!1559 = !DISubprogram(name: "and_reduce", linkageName: "_ZNK11ap_int_baseILi17ELb1EE10and_reduceEv", scope: !498, file: !499, line: 1413, type: !643, isLocal: false, isDefinition: false, scopeLine: 1413, flags: DIFlagPrototyped, isOptimized: false)
!1560 = !DISubprogram(name: "nand_reduce", linkageName: "_ZNK11ap_int_baseILi17ELb1EE11nand_reduceEv", scope: !498, file: !499, line: 1414, type: !643, isLocal: false, isDefinition: false, scopeLine: 1414, flags: DIFlagPrototyped, isOptimized: false)
!1561 = !DISubprogram(name: "or_reduce", linkageName: "_ZNK11ap_int_baseILi17ELb1EE9or_reduceEv", scope: !498, file: !499, line: 1415, type: !643, isLocal: false, isDefinition: false, scopeLine: 1415, flags: DIFlagPrototyped, isOptimized: false)
!1562 = !DISubprogram(name: "nor_reduce", linkageName: "_ZNK11ap_int_baseILi17ELb1EE10nor_reduceEv", scope: !498, file: !499, line: 1416, type: !643, isLocal: false, isDefinition: false, scopeLine: 1416, flags: DIFlagPrototyped, isOptimized: false)
!1563 = !DISubprogram(name: "xor_reduce", linkageName: "_ZNK11ap_int_baseILi17ELb1EE10xor_reduceEv", scope: !498, file: !499, line: 1417, type: !643, isLocal: false, isDefinition: false, scopeLine: 1417, flags: DIFlagPrototyped, isOptimized: false)
!1564 = !DISubprogram(name: "xnor_reduce", linkageName: "_ZNK11ap_int_baseILi17ELb1EE11xnor_reduceEv", scope: !498, file: !499, line: 1418, type: !643, isLocal: false, isDefinition: false, scopeLine: 1418, flags: DIFlagPrototyped, isOptimized: false)
!1565 = !DISubprogram(name: "to_string", linkageName: "_ZNK11ap_int_baseILi17ELb1EE9to_stringEab", scope: !498, file: !499, line: 1433, type: !1566, isLocal: false, isDefinition: false, scopeLine: 1433, flags: DIFlagPrototyped, isOptimized: false)
!1566 = !DISubroutineType(types: !1567)
!1567 = !{!1249, !520, !90, !40}
!1568 = !DISubprogram(name: "ap_int", scope: !495, file: !392, line: 21, type: !1569, isLocal: false, isDefinition: false, scopeLine: 21, flags: DIFlagPrototyped, isOptimized: false)
!1569 = !DISubroutineType(types: !1570)
!1570 = !{null, !1571}
!1571 = !DIDerivedType(tag: DW_TAG_pointer_type, baseType: !495, size: 64, flags: DIFlagArtificial | DIFlagObjectPointer)
!1572 = !DISubprogram(name: "ap_int", scope: !495, file: !392, line: 57, type: !1573, isLocal: false, isDefinition: false, scopeLine: 57, flags: DIFlagPrototyped, isOptimized: false)
!1573 = !DISubroutineType(types: !1574)
!1574 = !{null, !1571, !1575, !40}
!1575 = !DIBasicType(name: "uint17", size: 17, encoding: DW_ATE_unsigned)
!1576 = !DISubprogram(name: "ap_int", scope: !495, file: !392, line: 127, type: !1577, isLocal: false, isDefinition: false, scopeLine: 127, flags: DIFlagPrototyped, isOptimized: false)
!1577 = !DISubroutineType(types: !1578)
!1578 = !{null, !1571, !40}
!1579 = !DISubprogram(name: "ap_int", scope: !495, file: !392, line: 128, type: !1580, isLocal: false, isDefinition: false, scopeLine: 128, flags: DIFlagPrototyped, isOptimized: false)
!1580 = !DISubroutineType(types: !1581)
!1581 = !{null, !1571, !86}
!1582 = !DISubprogram(name: "ap_int", scope: !495, file: !392, line: 129, type: !1583, isLocal: false, isDefinition: false, scopeLine: 129, flags: DIFlagPrototyped, isOptimized: false)
!1583 = !DISubroutineType(types: !1584)
!1584 = !{null, !1571, !90}
!1585 = !DISubprogram(name: "ap_int", scope: !495, file: !392, line: 130, type: !1586, isLocal: false, isDefinition: false, scopeLine: 130, flags: DIFlagPrototyped, isOptimized: false)
!1586 = !DISubroutineType(types: !1587)
!1587 = !{null, !1571, !106}
!1588 = !DISubprogram(name: "ap_int", scope: !495, file: !392, line: 131, type: !1589, isLocal: false, isDefinition: false, scopeLine: 131, flags: DIFlagPrototyped, isOptimized: false)
!1589 = !DISubroutineType(types: !1590)
!1590 = !{null, !1571, !28}
!1591 = !DISubprogram(name: "ap_int", scope: !495, file: !392, line: 132, type: !1592, isLocal: false, isDefinition: false, scopeLine: 132, flags: DIFlagPrototyped, isOptimized: false)
!1592 = !DISubroutineType(types: !1593)
!1593 = !{null, !1571, !115}
!1594 = !DISubprogram(name: "ap_int", scope: !495, file: !392, line: 133, type: !1595, isLocal: false, isDefinition: false, scopeLine: 133, flags: DIFlagPrototyped, isOptimized: false)
!1595 = !DISubroutineType(types: !1596)
!1596 = !{null, !1571, !38}
!1597 = !DISubprogram(name: "ap_int", scope: !495, file: !392, line: 134, type: !1598, isLocal: false, isDefinition: false, scopeLine: 134, flags: DIFlagPrototyped, isOptimized: false)
!1598 = !DISubroutineType(types: !1599)
!1599 = !{null, !1571, !123}
!1600 = !DISubprogram(name: "ap_int", scope: !495, file: !392, line: 135, type: !1601, isLocal: false, isDefinition: false, scopeLine: 135, flags: DIFlagPrototyped, isOptimized: false)
!1601 = !DISubroutineType(types: !1602)
!1602 = !{null, !1571, !128}
!1603 = !DISubprogram(name: "ap_int", scope: !495, file: !392, line: 136, type: !1604, isLocal: false, isDefinition: false, scopeLine: 136, flags: DIFlagPrototyped, isOptimized: false)
!1604 = !DISubroutineType(types: !1605)
!1605 = !{null, !1571, !133}
!1606 = !DISubprogram(name: "ap_int", scope: !495, file: !392, line: 137, type: !1607, isLocal: false, isDefinition: false, scopeLine: 137, flags: DIFlagPrototyped, isOptimized: false)
!1607 = !DISubroutineType(types: !1608)
!1608 = !{null, !1571, !435}
!1609 = !DISubprogram(name: "ap_int", scope: !495, file: !392, line: 138, type: !1610, isLocal: false, isDefinition: false, scopeLine: 138, flags: DIFlagPrototyped, isOptimized: false)
!1610 = !DISubroutineType(types: !1611)
!1611 = !{null, !1571, !440}
!1612 = !DISubprogram(name: "ap_int", scope: !495, file: !392, line: 140, type: !1613, isLocal: false, isDefinition: false, scopeLine: 140, flags: DIFlagPrototyped, isOptimized: false)
!1613 = !DISubroutineType(types: !1614)
!1614 = !{null, !1571, !149}
!1615 = !DISubprogram(name: "ap_int", scope: !495, file: !392, line: 141, type: !1616, isLocal: false, isDefinition: false, scopeLine: 141, flags: DIFlagPrototyped, isOptimized: false)
!1616 = !DISubroutineType(types: !1617)
!1617 = !{null, !1571, !153}
!1618 = !DISubprogram(name: "ap_int", scope: !495, file: !392, line: 142, type: !1619, isLocal: false, isDefinition: false, scopeLine: 142, flags: DIFlagPrototyped, isOptimized: false)
!1619 = !DISubroutineType(types: !1620)
!1620 = !{null, !1571, !450}
!1621 = !DISubprogram(name: "ap_int", scope: !495, file: !392, line: 145, type: !1622, isLocal: false, isDefinition: false, scopeLine: 145, flags: DIFlagPrototyped, isOptimized: false)
!1622 = !DISubroutineType(types: !1623)
!1623 = !{null, !1571, !84}
!1624 = !DISubprogram(name: "ap_int", scope: !495, file: !392, line: 147, type: !1625, isLocal: false, isDefinition: false, scopeLine: 147, flags: DIFlagPrototyped, isOptimized: false)
!1625 = !DISubroutineType(types: !1626)
!1626 = !{null, !1571, !84, !90}
!1627 = !DISubprogram(name: "operator=", linkageName: "_ZN6ap_intILi17EEaSERKS0_", scope: !495, file: !392, line: 152, type: !1628, isLocal: false, isDefinition: false, scopeLine: 152, flags: DIFlagPrototyped, isOptimized: false)
!1628 = !DISubroutineType(types: !1629)
!1629 = !{!1630, !1571, !1631}
!1630 = !DIDerivedType(tag: DW_TAG_reference_type, baseType: !495, size: 64)
!1631 = !DIDerivedType(tag: DW_TAG_reference_type, baseType: !1632, size: 64)
!1632 = !DIDerivedType(tag: DW_TAG_const_type, baseType: !495)
!1633 = !DISubprogram(name: "operator=", linkageName: "_ZN6ap_intILi17EEaSERVKS0_", scope: !495, file: !392, line: 161, type: !1634, isLocal: false, isDefinition: false, scopeLine: 161, flags: DIFlagPrototyped, isOptimized: false)
!1634 = !DISubroutineType(types: !1635)
!1635 = !{!1630, !1571, !1636}
!1636 = !DIDerivedType(tag: DW_TAG_reference_type, baseType: !1637, size: 64)
!1637 = !DIDerivedType(tag: DW_TAG_const_type, baseType: !1638)
!1638 = !DIDerivedType(tag: DW_TAG_volatile_type, baseType: !495)
!1639 = !DISubprogram(name: "operator=", linkageName: "_ZNV6ap_intILi17EEaSERKS0_", scope: !495, file: !392, line: 167, type: !1640, isLocal: false, isDefinition: false, scopeLine: 167, flags: DIFlagPrototyped, isOptimized: false)
!1640 = !DISubroutineType(types: !1641)
!1641 = !{null, !1642, !1631}
!1642 = !DIDerivedType(tag: DW_TAG_pointer_type, baseType: !1638, size: 64, flags: DIFlagArtificial | DIFlagObjectPointer)
!1643 = !DISubprogram(name: "operator=", linkageName: "_ZNV6ap_intILi17EEaSERVKS0_", scope: !495, file: !392, line: 171, type: !1644, isLocal: false, isDefinition: false, scopeLine: 171, flags: DIFlagPrototyped, isOptimized: false)
!1644 = !DISubroutineType(types: !1645)
!1645 = !{null, !1642, !1636}
!1646 = !{!1554}
!1647 = !DISubprogram(name: "operator!", linkageName: "_ZNK11ap_int_baseILi16ELb1EEntEv", scope: !172, file: !173, line: 947, type: !305, isLocal: false, isDefinition: false, scopeLine: 947, flags: DIFlagPrototyped, isOptimized: false)
!1648 = !DISubprogram(name: "operator~", linkageName: "_ZNK11ap_int_baseILi16ELb1EEcoEv", scope: !172, file: !173, line: 953, type: !481, isLocal: false, isDefinition: false, scopeLine: 953, flags: DIFlagPrototyped, isOptimized: false)
!1649 = !DISubprogram(name: "range", linkageName: "_ZN11ap_int_baseILi16ELb1EE5rangeEii", scope: !172, file: !173, line: 1091, type: !1650, isLocal: false, isDefinition: false, scopeLine: 1091, flags: DIFlagPrototyped, isOptimized: false)
!1650 = !DISubroutineType(types: !1651)
!1651 = !{!1652, !186, !38, !38}
!1652 = distinct !DICompositeType(tag: DW_TAG_structure_type, name: "ap_range_ref<16, true>", file: !47, line: 189, flags: DIFlagFwdDecl, identifier: "_ZTS12ap_range_refILi16ELb1EE")
!1653 = !DISubprogram(name: "range", linkageName: "_ZNK11ap_int_baseILi16ELb1EE5rangeEii", scope: !172, file: !173, line: 1098, type: !1654, isLocal: false, isDefinition: false, scopeLine: 1098, flags: DIFlagPrototyped, isOptimized: false)
!1654 = !DISubroutineType(types: !1655)
!1655 = !{!1652, !181, !38, !38}
!1656 = !DISubprogram(name: "range", linkageName: "_ZN11ap_int_baseILi16ELb1EE5rangeEv", scope: !172, file: !173, line: 1122, type: !1657, isLocal: false, isDefinition: false, scopeLine: 1122, flags: DIFlagPrototyped, isOptimized: false)
!1657 = !DISubroutineType(types: !1658)
!1658 = !{!1652, !186}
!1659 = !DISubprogram(name: "range", linkageName: "_ZNK11ap_int_baseILi16ELb1EE5rangeEv", scope: !172, file: !173, line: 1126, type: !1660, isLocal: false, isDefinition: false, scopeLine: 1126, flags: DIFlagPrototyped, isOptimized: false)
!1660 = !DISubroutineType(types: !1661)
!1661 = !{!1652, !181}
!1662 = !DISubprogram(name: "operator()", linkageName: "_ZN11ap_int_baseILi16ELb1EEclEii", scope: !172, file: !173, line: 1130, type: !1650, isLocal: false, isDefinition: false, scopeLine: 1130, flags: DIFlagPrototyped, isOptimized: false)
!1663 = !DISubprogram(name: "operator()", linkageName: "_ZNK11ap_int_baseILi16ELb1EEclEii", scope: !172, file: !173, line: 1134, type: !1654, isLocal: false, isDefinition: false, scopeLine: 1134, flags: DIFlagPrototyped, isOptimized: false)
!1664 = !DISubprogram(name: "operator[]", linkageName: "_ZN11ap_int_baseILi16ELb1EEixEi", scope: !172, file: !173, line: 1172, type: !1665, isLocal: false, isDefinition: false, scopeLine: 1172, flags: DIFlagPrototyped, isOptimized: false)
!1665 = !DISubroutineType(types: !1666)
!1666 = !{!1667, !186, !38}
!1667 = distinct !DICompositeType(tag: DW_TAG_structure_type, name: "ap_bit_ref<16, true>", file: !1467, line: 761, size: 128, flags: DIFlagTypePassByReference, elements: !1668, templateParams: !1753, identifier: "_ZTS10ap_bit_refILi16ELb1EE")
!1668 = !{!1669, !1672, !1673, !1679, !1683, !1688, !1692, !1693, !1697, !1700, !1703, !1706, !1709, !1712, !1715, !1718, !1721, !1724, !1727, !1730, !1733, !1736, !1739, !1742, !1743, !1746, !1747, !1750}
!1669 = !DIDerivedType(tag: DW_TAG_member, name: "d_bv", scope: !1667, file: !1467, line: 766, baseType: !1670, size: 64)
!1670 = !DIDerivedType(tag: DW_TAG_reference_type, baseType: !1671, size: 64)
!1671 = !DIDerivedType(tag: DW_TAG_typedef, name: "ref_type", scope: !1667, file: !1467, line: 765, baseType: !172)
!1672 = !DIDerivedType(tag: DW_TAG_member, name: "d_index", scope: !1667, file: !1467, line: 767, baseType: !38, size: 32, offset: 64)
!1673 = !DISubprogram(name: "ap_bit_ref", scope: !1667, file: !1467, line: 771, type: !1674, isLocal: false, isDefinition: false, scopeLine: 771, flags: DIFlagPrototyped, isOptimized: false)
!1674 = !DISubroutineType(types: !1675)
!1675 = !{null, !1676, !1677}
!1676 = !DIDerivedType(tag: DW_TAG_pointer_type, baseType: !1667, size: 64, flags: DIFlagArtificial | DIFlagObjectPointer)
!1677 = !DIDerivedType(tag: DW_TAG_reference_type, baseType: !1678, size: 64)
!1678 = !DIDerivedType(tag: DW_TAG_const_type, baseType: !1667)
!1679 = !DISubprogram(name: "ap_bit_ref", scope: !1667, file: !1467, line: 774, type: !1680, isLocal: false, isDefinition: false, scopeLine: 774, flags: DIFlagPrototyped, isOptimized: false)
!1680 = !DISubroutineType(types: !1681)
!1681 = !{null, !1676, !1682, !38}
!1682 = !DIDerivedType(tag: DW_TAG_pointer_type, baseType: !1671, size: 64)
!1683 = !DISubprogram(name: "ap_bit_ref", scope: !1667, file: !1467, line: 776, type: !1684, isLocal: false, isDefinition: false, scopeLine: 776, flags: DIFlagPrototyped, isOptimized: false)
!1684 = !DISubroutineType(types: !1685)
!1685 = !{null, !1676, !1686, !38}
!1686 = !DIDerivedType(tag: DW_TAG_pointer_type, baseType: !1687, size: 64)
!1687 = !DIDerivedType(tag: DW_TAG_const_type, baseType: !1671)
!1688 = !DISubprogram(name: "operator bool", linkageName: "_ZNK10ap_bit_refILi16ELb1EEcvbEv", scope: !1667, file: !1467, line: 779, type: !1689, isLocal: false, isDefinition: false, scopeLine: 779, flags: DIFlagPrototyped, isOptimized: false)
!1689 = !DISubroutineType(types: !1690)
!1690 = !{!40, !1691}
!1691 = !DIDerivedType(tag: DW_TAG_pointer_type, baseType: !1678, size: 64, flags: DIFlagArtificial | DIFlagObjectPointer)
!1692 = !DISubprogram(name: "to_bool", linkageName: "_ZNK10ap_bit_refILi16ELb1EE7to_boolEv", scope: !1667, file: !1467, line: 780, type: !1689, isLocal: false, isDefinition: false, scopeLine: 780, flags: DIFlagPrototyped, isOptimized: false)
!1693 = !DISubprogram(name: "operator=", linkageName: "_ZN10ap_bit_refILi16ELb1EEaSEb", scope: !1667, file: !1467, line: 798, type: !1694, isLocal: false, isDefinition: false, scopeLine: 798, flags: DIFlagPrototyped, isOptimized: false)
!1694 = !DISubroutineType(types: !1695)
!1695 = !{!1696, !1676, !40}
!1696 = !DIDerivedType(tag: DW_TAG_reference_type, baseType: !1667, size: 64)
!1697 = !DISubprogram(name: "operator=", linkageName: "_ZN10ap_bit_refILi16ELb1EEaSEc", scope: !1667, file: !1467, line: 799, type: !1698, isLocal: false, isDefinition: false, scopeLine: 799, flags: DIFlagPrototyped, isOptimized: false)
!1698 = !DISubroutineType(types: !1699)
!1699 = !{!1696, !1676, !86}
!1700 = !DISubprogram(name: "operator=", linkageName: "_ZN10ap_bit_refILi16ELb1EEaSEa", scope: !1667, file: !1467, line: 800, type: !1701, isLocal: false, isDefinition: false, scopeLine: 800, flags: DIFlagPrototyped, isOptimized: false)
!1701 = !DISubroutineType(types: !1702)
!1702 = !{!1696, !1676, !90}
!1703 = !DISubprogram(name: "operator=", linkageName: "_ZN10ap_bit_refILi16ELb1EEaSEh", scope: !1667, file: !1467, line: 801, type: !1704, isLocal: false, isDefinition: false, scopeLine: 801, flags: DIFlagPrototyped, isOptimized: false)
!1704 = !DISubroutineType(types: !1705)
!1705 = !{!1696, !1676, !106}
!1706 = !DISubprogram(name: "operator=", linkageName: "_ZN10ap_bit_refILi16ELb1EEaSEs", scope: !1667, file: !1467, line: 802, type: !1707, isLocal: false, isDefinition: false, scopeLine: 802, flags: DIFlagPrototyped, isOptimized: false)
!1707 = !DISubroutineType(types: !1708)
!1708 = !{!1696, !1676, !28}
!1709 = !DISubprogram(name: "operator=", linkageName: "_ZN10ap_bit_refILi16ELb1EEaSEt", scope: !1667, file: !1467, line: 803, type: !1710, isLocal: false, isDefinition: false, scopeLine: 803, flags: DIFlagPrototyped, isOptimized: false)
!1710 = !DISubroutineType(types: !1711)
!1711 = !{!1696, !1676, !115}
!1712 = !DISubprogram(name: "operator=", linkageName: "_ZN10ap_bit_refILi16ELb1EEaSEi", scope: !1667, file: !1467, line: 804, type: !1713, isLocal: false, isDefinition: false, scopeLine: 804, flags: DIFlagPrototyped, isOptimized: false)
!1713 = !DISubroutineType(types: !1714)
!1714 = !{!1696, !1676, !38}
!1715 = !DISubprogram(name: "operator=", linkageName: "_ZN10ap_bit_refILi16ELb1EEaSEj", scope: !1667, file: !1467, line: 805, type: !1716, isLocal: false, isDefinition: false, scopeLine: 805, flags: DIFlagPrototyped, isOptimized: false)
!1716 = !DISubroutineType(types: !1717)
!1717 = !{!1696, !1676, !123}
!1718 = !DISubprogram(name: "operator=", linkageName: "_ZN10ap_bit_refILi16ELb1EEaSEl", scope: !1667, file: !1467, line: 806, type: !1719, isLocal: false, isDefinition: false, scopeLine: 806, flags: DIFlagPrototyped, isOptimized: false)
!1719 = !DISubroutineType(types: !1720)
!1720 = !{!1696, !1676, !128}
!1721 = !DISubprogram(name: "operator=", linkageName: "_ZN10ap_bit_refILi16ELb1EEaSEm", scope: !1667, file: !1467, line: 807, type: !1722, isLocal: false, isDefinition: false, scopeLine: 807, flags: DIFlagPrototyped, isOptimized: false)
!1722 = !DISubroutineType(types: !1723)
!1723 = !{!1696, !1676, !133}
!1724 = !DISubprogram(name: "operator=", linkageName: "_ZN10ap_bit_refILi16ELb1EEaSEx", scope: !1667, file: !1467, line: 808, type: !1725, isLocal: false, isDefinition: false, scopeLine: 808, flags: DIFlagPrototyped, isOptimized: false)
!1725 = !DISubroutineType(types: !1726)
!1726 = !{!1696, !1676, !435}
!1727 = !DISubprogram(name: "operator=", linkageName: "_ZN10ap_bit_refILi16ELb1EEaSEy", scope: !1667, file: !1467, line: 809, type: !1728, isLocal: false, isDefinition: false, scopeLine: 809, flags: DIFlagPrototyped, isOptimized: false)
!1728 = !DISubroutineType(types: !1729)
!1729 = !{!1696, !1676, !440}
!1730 = !DISubprogram(name: "operator=", linkageName: "_ZN10ap_bit_refILi16ELb1EEaSEDh", scope: !1667, file: !1467, line: 820, type: !1731, isLocal: false, isDefinition: false, scopeLine: 820, flags: DIFlagPrototyped, isOptimized: false)
!1731 = !DISubroutineType(types: !1732)
!1732 = !{!1696, !1676, !450}
!1733 = !DISubprogram(name: "operator=", linkageName: "_ZN10ap_bit_refILi16ELb1EEaSEf", scope: !1667, file: !1467, line: 821, type: !1734, isLocal: false, isDefinition: false, scopeLine: 821, flags: DIFlagPrototyped, isOptimized: false)
!1734 = !DISubroutineType(types: !1735)
!1735 = !{!1696, !1676, !153}
!1736 = !DISubprogram(name: "operator=", linkageName: "_ZN10ap_bit_refILi16ELb1EEaSEd", scope: !1667, file: !1467, line: 822, type: !1737, isLocal: false, isDefinition: false, scopeLine: 822, flags: DIFlagPrototyped, isOptimized: false)
!1737 = !DISubroutineType(types: !1738)
!1738 = !{!1696, !1676, !149}
!1739 = !DISubprogram(name: "operator=", linkageName: "_ZN10ap_bit_refILi16ELb1EEaSERKS0_", scope: !1667, file: !1467, line: 839, type: !1740, isLocal: false, isDefinition: false, scopeLine: 839, flags: DIFlagPrototyped, isOptimized: false)
!1740 = !DISubroutineType(types: !1741)
!1741 = !{!1696, !1676, !1677}
!1742 = !DISubprogram(name: "get", linkageName: "_ZNK10ap_bit_refILi16ELb1EE3getEv", scope: !1667, file: !1467, line: 959, type: !1689, isLocal: false, isDefinition: false, scopeLine: 959, flags: DIFlagPrototyped, isOptimized: false)
!1743 = !DISubprogram(name: "get", linkageName: "_ZN10ap_bit_refILi16ELb1EE3getEv", scope: !1667, file: !1467, line: 961, type: !1744, isLocal: false, isDefinition: false, scopeLine: 961, flags: DIFlagPrototyped, isOptimized: false)
!1744 = !DISubroutineType(types: !1745)
!1745 = !{!40, !1676}
!1746 = !DISubprogram(name: "operator~", linkageName: "_ZNK10ap_bit_refILi16ELb1EEcoEv", scope: !1667, file: !1467, line: 968, type: !1689, isLocal: false, isDefinition: false, scopeLine: 968, flags: DIFlagPrototyped, isOptimized: false)
!1747 = !DISubprogram(name: "length", linkageName: "_ZNK10ap_bit_refILi16ELb1EE6lengthEv", scope: !1667, file: !1467, line: 973, type: !1748, isLocal: false, isDefinition: false, scopeLine: 973, flags: DIFlagPrototyped, isOptimized: false)
!1748 = !DISubroutineType(types: !1749)
!1749 = !{!38, !1691}
!1750 = !DISubprogram(name: "to_string", linkageName: "_ZNK10ap_bit_refILi16ELb1EE9to_stringEv", scope: !1667, file: !1467, line: 979, type: !1751, isLocal: false, isDefinition: false, scopeLine: 979, flags: DIFlagPrototyped, isOptimized: false)
!1751 = !DISubroutineType(types: !1752)
!1752 = !{!1249, !1691}
!1753 = !{!478, !39}
!1754 = !DISubprogram(name: "operator[]", linkageName: "_ZNK11ap_int_baseILi16ELb1EEixEi", scope: !172, file: !173, line: 1188, type: !360, isLocal: false, isDefinition: false, scopeLine: 1188, flags: DIFlagPrototyped, isOptimized: false)
!1755 = !DISubprogram(name: "bit", linkageName: "_ZN11ap_int_baseILi16ELb1EE3bitEi", scope: !172, file: !173, line: 1201, type: !1665, isLocal: false, isDefinition: false, scopeLine: 1201, flags: DIFlagPrototyped, isOptimized: false)
!1756 = !DISubprogram(name: "bit", linkageName: "_ZNK11ap_int_baseILi16ELb1EE3bitEi", scope: !172, file: !173, line: 1216, type: !360, isLocal: false, isDefinition: false, scopeLine: 1216, flags: DIFlagPrototyped, isOptimized: false)
!1757 = !DISubprogram(name: "countLeadingZeros", linkageName: "_ZNK11ap_int_baseILi16ELb1EE17countLeadingZerosEv", scope: !172, file: !173, line: 1239, type: !179, isLocal: false, isDefinition: false, scopeLine: 1239, flags: DIFlagPrototyped, isOptimized: false)
!1758 = !DISubprogram(name: "and_reduce", linkageName: "_ZNK11ap_int_baseILi16ELb1EE10and_reduceEv", scope: !172, file: !173, line: 1459, type: !305, isLocal: false, isDefinition: false, scopeLine: 1459, flags: DIFlagPrototyped, isOptimized: false)
!1759 = !DISubprogram(name: "nand_reduce", linkageName: "_ZNK11ap_int_baseILi16ELb1EE11nand_reduceEv", scope: !172, file: !173, line: 1460, type: !305, isLocal: false, isDefinition: false, scopeLine: 1460, flags: DIFlagPrototyped, isOptimized: false)
!1760 = !DISubprogram(name: "or_reduce", linkageName: "_ZNK11ap_int_baseILi16ELb1EE9or_reduceEv", scope: !172, file: !173, line: 1461, type: !305, isLocal: false, isDefinition: false, scopeLine: 1461, flags: DIFlagPrototyped, isOptimized: false)
!1761 = !DISubprogram(name: "nor_reduce", linkageName: "_ZNK11ap_int_baseILi16ELb1EE10nor_reduceEv", scope: !172, file: !173, line: 1462, type: !305, isLocal: false, isDefinition: false, scopeLine: 1462, flags: DIFlagPrototyped, isOptimized: false)
!1762 = !DISubprogram(name: "xor_reduce", linkageName: "_ZNK11ap_int_baseILi16ELb1EE10xor_reduceEv", scope: !172, file: !173, line: 1463, type: !305, isLocal: false, isDefinition: false, scopeLine: 1463, flags: DIFlagPrototyped, isOptimized: false)
!1763 = !DISubprogram(name: "xnor_reduce", linkageName: "_ZNK11ap_int_baseILi16ELb1EE11xnor_reduceEv", scope: !172, file: !173, line: 1464, type: !305, isLocal: false, isDefinition: false, scopeLine: 1464, flags: DIFlagPrototyped, isOptimized: false)
!1764 = !DISubprogram(name: "to_string", linkageName: "_ZNK11ap_int_baseILi16ELb1EE9to_stringEab", scope: !172, file: !173, line: 1479, type: !1765, isLocal: false, isDefinition: false, scopeLine: 1479, flags: DIFlagPrototyped, isOptimized: false)
!1765 = !DISubroutineType(types: !1766)
!1766 = !{!1249, !181, !90, !40}
!1767 = !DISubprogram(name: "to_char", linkageName: "_ZNK13ap_fixed_baseILi16ELi16ELb1EL9ap_q_mode5EL9ap_o_mode3ELi0EE7to_charEv", scope: !20, file: !21, line: 1066, type: !1768, isLocal: false, isDefinition: false, scopeLine: 1066, flags: DIFlagPrototyped, isOptimized: false)
!1768 = !DISubroutineType(types: !1769)
!1769 = !{!86, !78}
!1770 = !DISubprogram(name: "to_int", linkageName: "_ZNK13ap_fixed_baseILi16ELi16ELb1EL9ap_q_mode5EL9ap_o_mode3ELi0EE6to_intEv", scope: !20, file: !21, line: 1068, type: !76, isLocal: false, isDefinition: false, scopeLine: 1068, flags: DIFlagPrototyped, isOptimized: false)
!1771 = !DISubprogram(name: "to_uint", linkageName: "_ZNK13ap_fixed_baseILi16ELi16ELb1EL9ap_q_mode5EL9ap_o_mode3ELi0EE7to_uintEv", scope: !20, file: !21, line: 1070, type: !1772, isLocal: false, isDefinition: false, scopeLine: 1070, flags: DIFlagPrototyped, isOptimized: false)
!1772 = !DISubroutineType(types: !1773)
!1773 = !{!123, !78}
!1774 = !DISubprogram(name: "to_int64", linkageName: "_ZNK13ap_fixed_baseILi16ELi16ELb1EL9ap_q_mode5EL9ap_o_mode3ELi0EE8to_int64Ev", scope: !20, file: !21, line: 1072, type: !1775, isLocal: false, isDefinition: false, scopeLine: 1072, flags: DIFlagPrototyped, isOptimized: false)
!1775 = !DISubroutineType(types: !1776)
!1776 = !{!138, !78}
!1777 = !DISubprogram(name: "to_uint64", linkageName: "_ZNK13ap_fixed_baseILi16ELi16ELb1EL9ap_q_mode5EL9ap_o_mode3ELi0EE9to_uint64Ev", scope: !20, file: !21, line: 1074, type: !1778, isLocal: false, isDefinition: false, scopeLine: 1074, flags: DIFlagPrototyped, isOptimized: false)
!1778 = !DISubroutineType(types: !1779)
!1779 = !{!144, !78}
!1780 = !DISubprogram(name: "to_ap_int", linkageName: "_ZNK13ap_fixed_baseILi16ELi16ELb1EL9ap_q_mode5EL9ap_o_mode3ELi0EE9to_ap_intEv", scope: !20, file: !21, line: 1076, type: !1781, isLocal: false, isDefinition: false, scopeLine: 1076, flags: DIFlagPrototyped, isOptimized: false)
!1781 = !DISubroutineType(types: !1782)
!1782 = !{!391, !78}
!1783 = !DISubprogram(name: "to_double", linkageName: "_ZNK13ap_fixed_baseILi16ELi16ELb1EL9ap_q_mode5EL9ap_o_mode3ELi0EE9to_doubleEv", scope: !20, file: !21, line: 1080, type: !1784, isLocal: false, isDefinition: false, scopeLine: 1080, flags: DIFlagPrototyped, isOptimized: false)
!1784 = !DISubroutineType(types: !1785)
!1785 = !{!149, !78}
!1786 = !DISubprogram(name: "to_float", linkageName: "_ZNK13ap_fixed_baseILi16ELi16ELb1EL9ap_q_mode5EL9ap_o_mode3ELi0EE8to_floatEv", scope: !20, file: !21, line: 1130, type: !1787, isLocal: false, isDefinition: false, scopeLine: 1130, flags: DIFlagPrototyped, isOptimized: false)
!1787 = !DISubroutineType(types: !1788)
!1788 = !{!153, !78}
!1789 = !DISubprogram(name: "to_half", linkageName: "_ZNK13ap_fixed_baseILi16ELi16ELb1EL9ap_q_mode5EL9ap_o_mode3ELi0EE7to_halfEv", scope: !20, file: !21, line: 1177, type: !1790, isLocal: false, isDefinition: false, scopeLine: 1177, flags: DIFlagPrototyped, isOptimized: false)
!1790 = !DISubroutineType(types: !1791)
!1791 = !{!157, !78}
!1792 = !DISubprogram(name: "operator long double", linkageName: "_ZNK13ap_fixed_baseILi16ELi16ELb1EL9ap_q_mode5EL9ap_o_mode3ELi0EEcveEv", scope: !20, file: !21, line: 1223, type: !1793, isLocal: false, isDefinition: false, scopeLine: 1223, flags: DIFlagPrototyped, isOptimized: false)
!1793 = !DISubroutineType(types: !1794)
!1794 = !{!1795, !78}
!1795 = !DIBasicType(name: "long double", size: 64, encoding: DW_ATE_float)
!1796 = !DISubprogram(name: "operator double", linkageName: "_ZNK13ap_fixed_baseILi16ELi16ELb1EL9ap_q_mode5EL9ap_o_mode3ELi0EEcvdEv", scope: !20, file: !21, line: 1225, type: !1784, isLocal: false, isDefinition: false, scopeLine: 1225, flags: DIFlagPrototyped, isOptimized: false)
!1797 = !DISubprogram(name: "operator float", linkageName: "_ZNK13ap_fixed_baseILi16ELi16ELb1EL9ap_q_mode5EL9ap_o_mode3ELi0EEcvfEv", scope: !20, file: !21, line: 1227, type: !1787, isLocal: false, isDefinition: false, scopeLine: 1227, flags: DIFlagPrototyped, isOptimized: false)
!1798 = !DISubprogram(name: "operator __fp16", linkageName: "_ZNK13ap_fixed_baseILi16ELi16ELb1EL9ap_q_mode5EL9ap_o_mode3ELi0EEcvDhEv", scope: !20, file: !21, line: 1229, type: !1790, isLocal: false, isDefinition: false, scopeLine: 1229, flags: DIFlagPrototyped, isOptimized: false)
!1799 = !DISubprogram(name: "operator bool", linkageName: "_ZNK13ap_fixed_baseILi16ELi16ELb1EL9ap_q_mode5EL9ap_o_mode3ELi0EEcvbEv", scope: !20, file: !21, line: 1231, type: !1800, isLocal: false, isDefinition: false, scopeLine: 1231, flags: DIFlagPrototyped, isOptimized: false)
!1800 = !DISubroutineType(types: !1801)
!1801 = !{!40, !78}
!1802 = !DISubprogram(name: "operator char", linkageName: "_ZNK13ap_fixed_baseILi16ELi16ELb1EL9ap_q_mode5EL9ap_o_mode3ELi0EEcvcEv", scope: !20, file: !21, line: 1233, type: !1768, isLocal: false, isDefinition: false, scopeLine: 1233, flags: DIFlagPrototyped, isOptimized: false)
!1803 = !DISubprogram(name: "operator signed char", linkageName: "_ZNK13ap_fixed_baseILi16ELi16ELb1EL9ap_q_mode5EL9ap_o_mode3ELi0EEcvaEv", scope: !20, file: !21, line: 1235, type: !1804, isLocal: false, isDefinition: false, scopeLine: 1235, flags: DIFlagPrototyped, isOptimized: false)
!1804 = !DISubroutineType(types: !1805)
!1805 = !{!90, !78}
!1806 = !DISubprogram(name: "operator unsigned char", linkageName: "_ZNK13ap_fixed_baseILi16ELi16ELb1EL9ap_q_mode5EL9ap_o_mode3ELi0EEcvhEv", scope: !20, file: !21, line: 1237, type: !1807, isLocal: false, isDefinition: false, scopeLine: 1237, flags: DIFlagPrototyped, isOptimized: false)
!1807 = !DISubroutineType(types: !1808)
!1808 = !{!106, !78}
!1809 = !DISubprogram(name: "operator short", linkageName: "_ZNK13ap_fixed_baseILi16ELi16ELb1EL9ap_q_mode5EL9ap_o_mode3ELi0EEcvsEv", scope: !20, file: !21, line: 1239, type: !1810, isLocal: false, isDefinition: false, scopeLine: 1239, flags: DIFlagPrototyped, isOptimized: false)
!1810 = !DISubroutineType(types: !1811)
!1811 = !{!28, !78}
!1812 = !DISubprogram(name: "operator unsigned short", linkageName: "_ZNK13ap_fixed_baseILi16ELi16ELb1EL9ap_q_mode5EL9ap_o_mode3ELi0EEcvtEv", scope: !20, file: !21, line: 1241, type: !1813, isLocal: false, isDefinition: false, scopeLine: 1241, flags: DIFlagPrototyped, isOptimized: false)
!1813 = !DISubroutineType(types: !1814)
!1814 = !{!115, !78}
!1815 = !DISubprogram(name: "operator int", linkageName: "_ZNK13ap_fixed_baseILi16ELi16ELb1EL9ap_q_mode5EL9ap_o_mode3ELi0EEcviEv", scope: !20, file: !21, line: 1243, type: !76, isLocal: false, isDefinition: false, scopeLine: 1243, flags: DIFlagPrototyped, isOptimized: false)
!1816 = !DISubprogram(name: "operator unsigned int", linkageName: "_ZNK13ap_fixed_baseILi16ELi16ELb1EL9ap_q_mode5EL9ap_o_mode3ELi0EEcvjEv", scope: !20, file: !21, line: 1245, type: !1772, isLocal: false, isDefinition: false, scopeLine: 1245, flags: DIFlagPrototyped, isOptimized: false)
!1817 = !DISubprogram(name: "operator long", linkageName: "_ZNK13ap_fixed_baseILi16ELi16ELb1EL9ap_q_mode5EL9ap_o_mode3ELi0EEcvlEv", scope: !20, file: !21, line: 1249, type: !1818, isLocal: false, isDefinition: false, scopeLine: 1249, flags: DIFlagPrototyped, isOptimized: false)
!1818 = !DISubroutineType(types: !1819)
!1819 = !{!128, !78}
!1820 = !DISubprogram(name: "operator unsigned long", linkageName: "_ZNK13ap_fixed_baseILi16ELi16ELb1EL9ap_q_mode5EL9ap_o_mode3ELi0EEcvmEv", scope: !20, file: !21, line: 1251, type: !1821, isLocal: false, isDefinition: false, scopeLine: 1251, flags: DIFlagPrototyped, isOptimized: false)
!1821 = !DISubroutineType(types: !1822)
!1822 = !{!133, !78}
!1823 = !DISubprogram(name: "operator unsigned long long", linkageName: "_ZNK13ap_fixed_baseILi16ELi16ELb1EL9ap_q_mode5EL9ap_o_mode3ELi0EEcvyEv", scope: !20, file: !21, line: 1258, type: !1778, isLocal: false, isDefinition: false, scopeLine: 1258, flags: DIFlagPrototyped, isOptimized: false)
!1824 = !DISubprogram(name: "operator long long", linkageName: "_ZNK13ap_fixed_baseILi16ELi16ELb1EL9ap_q_mode5EL9ap_o_mode3ELi0EEcvxEv", scope: !20, file: !21, line: 1260, type: !1775, isLocal: false, isDefinition: false, scopeLine: 1260, flags: DIFlagPrototyped, isOptimized: false)
!1825 = !DISubprogram(name: "length", linkageName: "_ZNK13ap_fixed_baseILi16ELi16ELb1EL9ap_q_mode5EL9ap_o_mode3ELi0EE6lengthEv", scope: !20, file: !21, line: 1262, type: !76, isLocal: false, isDefinition: false, scopeLine: 1262, flags: DIFlagPrototyped, isOptimized: false)
!1826 = !DISubprogram(name: "countLeadingZeros", linkageName: "_ZNK13ap_fixed_baseILi16ELi16ELb1EL9ap_q_mode5EL9ap_o_mode3ELi0EE17countLeadingZerosEv", scope: !20, file: !21, line: 1275, type: !76, isLocal: false, isDefinition: false, scopeLine: 1275, flags: DIFlagPrototyped, isOptimized: false)
!1827 = !DISubprogram(name: "operator++", linkageName: "_ZN13ap_fixed_baseILi16ELi16ELb1EL9ap_q_mode5EL9ap_o_mode3ELi0EEppEv", scope: !20, file: !21, line: 1423, type: !1828, isLocal: false, isDefinition: false, scopeLine: 1423, flags: DIFlagPrototyped, isOptimized: false)
!1828 = !DISubroutineType(types: !1829)
!1829 = !{!162, !68}
!1830 = !DISubprogram(name: "operator--", linkageName: "_ZN13ap_fixed_baseILi16ELi16ELb1EL9ap_q_mode5EL9ap_o_mode3ELi0EEmmEv", scope: !20, file: !21, line: 1429, type: !1828, isLocal: false, isDefinition: false, scopeLine: 1429, flags: DIFlagPrototyped, isOptimized: false)
!1831 = !DISubprogram(name: "operator++", linkageName: "_ZN13ap_fixed_baseILi16ELi16ELb1EL9ap_q_mode5EL9ap_o_mode3ELi0EEppEi", scope: !20, file: !21, line: 1435, type: !1832, isLocal: false, isDefinition: false, scopeLine: 1435, flags: DIFlagPrototyped, isOptimized: false)
!1832 = !DISubroutineType(types: !1833)
!1833 = !{!79, !68, !38}
!1834 = !DISubprogram(name: "operator--", linkageName: "_ZN13ap_fixed_baseILi16ELi16ELb1EL9ap_q_mode5EL9ap_o_mode3ELi0EEmmEi", scope: !20, file: !21, line: 1442, type: !1832, isLocal: false, isDefinition: false, scopeLine: 1442, flags: DIFlagPrototyped, isOptimized: false)
!1835 = !DISubprogram(name: "operator+", linkageName: "_ZN13ap_fixed_baseILi16ELi16ELb1EL9ap_q_mode5EL9ap_o_mode3ELi0EEpsEv", scope: !20, file: !21, line: 1450, type: !1836, isLocal: false, isDefinition: false, scopeLine: 1450, flags: DIFlagPrototyped, isOptimized: false)
!1836 = !DISubroutineType(types: !1837)
!1837 = !{!1838, !68}
!1838 = !DIDerivedType(tag: DW_TAG_typedef, name: "type", scope: !1839, file: !21, line: 137, baseType: !16)
!1839 = distinct !DICompositeType(tag: DW_TAG_structure_type, name: "_ap_fixed_factory<16, 16, true>", file: !21, line: 136, size: 8, flags: DIFlagTypePassByValue, elements: !4, templateParams: !1840, identifier: "_ZTS17_ap_fixed_factoryILi16ELi16ELb1EE")
!1840 = !{!387, !1841, !388}
!1841 = !DITemplateValueParameter(name: "_AP_I2", type: !38, value: i32 16)
!1842 = !DISubprogram(name: "operator-", linkageName: "_ZNK13ap_fixed_baseILi16ELi16ELb1EL9ap_q_mode5EL9ap_o_mode3ELi0EEngEv", scope: !20, file: !21, line: 1452, type: !1843, isLocal: false, isDefinition: false, scopeLine: 1452, flags: DIFlagPrototyped, isOptimized: false)
!1843 = !DISubroutineType(types: !1844)
!1844 = !{!1845, !78}
!1845 = !DIDerivedType(tag: DW_TAG_typedef, name: "type", scope: !1846, file: !21, line: 137, baseType: !1849)
!1846 = distinct !DICompositeType(tag: DW_TAG_structure_type, name: "_ap_fixed_factory<17, 17, true>", file: !21, line: 136, size: 8, flags: DIFlagTypePassByValue, elements: !4, templateParams: !1847, identifier: "_ZTS17_ap_fixed_factoryILi17ELi17ELb1EE")
!1847 = !{!494, !1848, !388}
!1848 = !DITemplateValueParameter(name: "_AP_I2", type: !38, value: i32 17)
!1849 = distinct !DICompositeType(tag: DW_TAG_structure_type, name: "ap_fixed<17, 17, AP_TRN, AP_WRAP, 0>", file: !1850, line: 18, size: 32, flags: DIFlagTypePassByValue, elements: !1851, templateParams: !4682, identifier: "_ZTS8ap_fixedILi17ELi17EL9ap_q_mode5EL9ap_o_mode3ELi0EE")
!1850 = !DIFile(filename: "r:/ci/prod/2022.1/rdi_builds/continuous/2022_04_18_3526262/src/shared/hls/clib/include/header_files\5Cap_fixed.h", directory: "R:\5Cci\5Cprod\5C2022.1\5Crdi_builds\5Ccontinuous\5C2022_04_18_3526262\5Csrc\5Cshared")
!1851 = !{!1852, !4605, !4609, !4612, !4615, !4618, !4621, !4624, !4627, !4630, !4633, !4636, !4639, !4642, !4645, !4648, !4651, !4654, !4657, !4660, !4663, !4669, !4674, !4679}
!1852 = !DIDerivedType(tag: DW_TAG_inheritance, scope: !1849, baseType: !1853)
!1853 = distinct !DICompositeType(tag: DW_TAG_structure_type, name: "ap_fixed_base<17, 17, true, AP_TRN, AP_WRAP, 0>", file: !1854, line: 110, size: 32, flags: DIFlagTypePassByValue, elements: !1855, templateParams: !3911, identifier: "_ZTS13ap_fixed_baseILi17ELi17ELb1EL9ap_q_mode5EL9ap_o_mode3ELi0EE")
!1854 = !DIFile(filename: "r:/ci/prod/2022.1/rdi_builds/continuous/2022_04_18_3526262/src/shared/hls/clib/include/header_files\5Cap_fixed_base.h", directory: "R:\5Cci\5Cprod\5C2022.1\5Crdi_builds\5Ccontinuous\5C2022_04_18_3526262\5Csrc\5Cshared")
!1855 = !{!1856, !1857, !1858, !1859, !1860, !1861, !1865, !1868, !1871, !1876, !1877, !1880, !1883, !1886, !1889, !1892, !1895, !1898, !1901, !1904, !1907, !1910, !1913, !1916, !1919, !1922, !1925, !1928, !1932, !1935, !1938, !1941, !1944, !1945, !1948, !1951, !1954, !1957, !1960, !1963, !1966, !1969, !1970, !1971, !1972, !1975, !1976, !1979, !1982, !1985, !1988, !1989, !1990, !1993, !1996, !1997, !1998, !1999, !2000, !2003, !2004, !2007, !2008, !2012, !3837, !3840, !3841, !3844, !3847, !3848, !3851, !3852, !3855, !3858, !3859, !3860, !3863, !3864, !3865, !3866, !3867, !3868, !3913, !3916, !3917, !3918, !3921, !4580, !4583, !4586, !4589, !4590, !4591, !4592, !4593, !4594, !4595, !4598, !4601, !4602}
!1856 = !DIDerivedType(tag: DW_TAG_inheritance, scope: !1853, baseType: !502)
!1857 = !DIDerivedType(tag: DW_TAG_member, name: "width", scope: !1853, file: !1854, line: 113, baseType: !42, flags: DIFlagStaticMember, extraData: i32 17)
!1858 = !DIDerivedType(tag: DW_TAG_member, name: "iwidth", scope: !1853, file: !1854, line: 114, baseType: !42, flags: DIFlagStaticMember, extraData: i32 17)
!1859 = !DIDerivedType(tag: DW_TAG_member, name: "qmode", scope: !1853, file: !1854, line: 115, baseType: !45, flags: DIFlagStaticMember, extraData: i32 5)
!1860 = !DIDerivedType(tag: DW_TAG_member, name: "omode", scope: !1853, file: !1854, line: 116, baseType: !57, flags: DIFlagStaticMember, extraData: i32 3)
!1861 = !DISubprogram(name: "report", linkageName: "_ZN13ap_fixed_baseILi17ELi17ELb1EL9ap_q_mode5EL9ap_o_mode3ELi0EE6reportEv", scope: !1853, file: !1854, line: 295, type: !1862, isLocal: false, isDefinition: false, scopeLine: 295, flags: DIFlagPrivate | DIFlagPrototyped, isOptimized: false)
!1862 = !DISubroutineType(types: !1863)
!1863 = !{null, !1864}
!1864 = !DIDerivedType(tag: DW_TAG_pointer_type, baseType: !1853, size: 64, flags: DIFlagArtificial | DIFlagObjectPointer)
!1865 = !DISubprogram(name: "overflow_adjust", linkageName: "_ZN13ap_fixed_baseILi17ELi17ELb1EL9ap_q_mode5EL9ap_o_mode3ELi0EE15overflow_adjustEbbbb", scope: !1853, file: !1854, line: 300, type: !1866, isLocal: false, isDefinition: false, scopeLine: 300, flags: DIFlagPrivate | DIFlagPrototyped, isOptimized: false)
!1866 = !DISubroutineType(types: !1867)
!1867 = !{null, !1864, !40, !40, !40, !40}
!1868 = !DISubprogram(name: "quantization_adjust", linkageName: "_ZN13ap_fixed_baseILi17ELi17ELb1EL9ap_q_mode5EL9ap_o_mode3ELi0EE19quantization_adjustEbbb", scope: !1853, file: !1854, line: 364, type: !1869, isLocal: false, isDefinition: false, scopeLine: 364, flags: DIFlagPrivate | DIFlagPrototyped, isOptimized: false)
!1869 = !DISubroutineType(types: !1870)
!1870 = !{!40, !1864, !40, !40, !40}
!1871 = !DISubprogram(name: "countLeadingOnes", linkageName: "_ZNK13ap_fixed_baseILi17ELi17ELb1EL9ap_q_mode5EL9ap_o_mode3ELi0EE16countLeadingOnesEv", scope: !1853, file: !1854, line: 382, type: !1872, isLocal: false, isDefinition: false, scopeLine: 382, flags: DIFlagPrivate | DIFlagPrototyped, isOptimized: false)
!1872 = !DISubroutineType(types: !1873)
!1873 = !{!38, !1874}
!1874 = !DIDerivedType(tag: DW_TAG_pointer_type, baseType: !1875, size: 64, flags: DIFlagArtificial | DIFlagObjectPointer)
!1875 = !DIDerivedType(tag: DW_TAG_const_type, baseType: !1853)
!1876 = !DISubprogram(name: "ap_fixed_base", scope: !1853, file: !1854, line: 395, type: !1862, isLocal: false, isDefinition: false, scopeLine: 395, flags: DIFlagPrototyped, isOptimized: false)
!1877 = !DISubprogram(name: "ap_fixed_base", scope: !1853, file: !1854, line: 456, type: !1878, isLocal: false, isDefinition: false, scopeLine: 456, flags: DIFlagPrototyped, isOptimized: false)
!1878 = !DISubroutineType(types: !1879)
!1879 = !{null, !1864, !84}
!1880 = !DISubprogram(name: "ap_fixed_base", scope: !1853, file: !1854, line: 462, type: !1881, isLocal: false, isDefinition: false, scopeLine: 462, flags: DIFlagPrototyped, isOptimized: false)
!1881 = !DISubroutineType(types: !1882)
!1882 = !{null, !1864, !84, !90}
!1883 = !DISubprogram(name: "ap_fixed_base", scope: !1853, file: !1854, line: 524, type: !1884, isLocal: false, isDefinition: false, scopeLine: 524, flags: DIFlagPrototyped, isOptimized: false)
!1884 = !DISubroutineType(types: !1885)
!1885 = !{null, !1864, !94}
!1886 = !DISubprogram(name: "ap_fixed_base", scope: !1853, file: !1854, line: 525, type: !1887, isLocal: false, isDefinition: false, scopeLine: 525, flags: DIFlagPrototyped, isOptimized: false)
!1887 = !DISubroutineType(types: !1888)
!1888 = !{null, !1864, !85}
!1889 = !DISubprogram(name: "ap_fixed_base", scope: !1853, file: !1854, line: 526, type: !1890, isLocal: false, isDefinition: false, scopeLine: 526, flags: DIFlagPrototyped, isOptimized: false)
!1890 = !DISubroutineType(types: !1891)
!1891 = !{null, !1864, !101}
!1892 = !DISubprogram(name: "ap_fixed_base", scope: !1853, file: !1854, line: 527, type: !1893, isLocal: false, isDefinition: false, scopeLine: 527, flags: DIFlagPrototyped, isOptimized: false)
!1893 = !DISubroutineType(types: !1894)
!1894 = !{null, !1864, !105}
!1895 = !DISubprogram(name: "ap_fixed_base", scope: !1853, file: !1854, line: 528, type: !1896, isLocal: false, isDefinition: false, scopeLine: 528, flags: DIFlagPrototyped, isOptimized: false)
!1896 = !DISubroutineType(types: !1897)
!1897 = !{null, !1864, !110}
!1898 = !DISubprogram(name: "ap_fixed_base", scope: !1853, file: !1854, line: 529, type: !1899, isLocal: false, isDefinition: false, scopeLine: 529, flags: DIFlagPrototyped, isOptimized: false)
!1899 = !DISubroutineType(types: !1900)
!1900 = !{null, !1864, !114}
!1901 = !DISubprogram(name: "ap_fixed_base", scope: !1853, file: !1854, line: 530, type: !1902, isLocal: false, isDefinition: false, scopeLine: 530, flags: DIFlagPrototyped, isOptimized: false)
!1902 = !DISubroutineType(types: !1903)
!1903 = !{null, !1864, !42}
!1904 = !DISubprogram(name: "ap_fixed_base", scope: !1853, file: !1854, line: 531, type: !1905, isLocal: false, isDefinition: false, scopeLine: 531, flags: DIFlagPrototyped, isOptimized: false)
!1905 = !DISubroutineType(types: !1906)
!1906 = !{null, !1864, !122}
!1907 = !DISubprogram(name: "ap_fixed_base", scope: !1853, file: !1854, line: 532, type: !1908, isLocal: false, isDefinition: false, scopeLine: 532, flags: DIFlagPrototyped, isOptimized: false)
!1908 = !DISubroutineType(types: !1909)
!1909 = !{null, !1864, !127}
!1910 = !DISubprogram(name: "ap_fixed_base", scope: !1853, file: !1854, line: 533, type: !1911, isLocal: false, isDefinition: false, scopeLine: 533, flags: DIFlagPrototyped, isOptimized: false)
!1911 = !DISubroutineType(types: !1912)
!1912 = !{null, !1864, !132}
!1913 = !DISubprogram(name: "ap_fixed_base", scope: !1853, file: !1854, line: 534, type: !1914, isLocal: false, isDefinition: false, scopeLine: 534, flags: DIFlagPrototyped, isOptimized: false)
!1914 = !DISubroutineType(types: !1915)
!1915 = !{null, !1864, !559}
!1916 = !DISubprogram(name: "ap_fixed_base", scope: !1853, file: !1854, line: 535, type: !1917, isLocal: false, isDefinition: false, scopeLine: 535, flags: DIFlagPrototyped, isOptimized: false)
!1917 = !DISubroutineType(types: !1918)
!1918 = !{null, !1864, !563}
!1919 = !DISubprogram(name: "ap_fixed_base", scope: !1853, file: !1854, line: 543, type: !1920, isLocal: false, isDefinition: false, scopeLine: 543, flags: DIFlagPrototyped, isOptimized: false)
!1920 = !DISubroutineType(types: !1921)
!1921 = !{null, !1864, !149}
!1922 = !DISubprogram(name: "ap_fixed_base", scope: !1853, file: !1854, line: 661, type: !1923, isLocal: false, isDefinition: false, scopeLine: 661, flags: DIFlagPrototyped, isOptimized: false)
!1923 = !DISubroutineType(types: !1924)
!1924 = !{null, !1864, !153}
!1925 = !DISubprogram(name: "ap_fixed_base", scope: !1853, file: !1854, line: 664, type: !1926, isLocal: false, isDefinition: false, scopeLine: 664, flags: DIFlagPrototyped, isOptimized: false)
!1926 = !DISubroutineType(types: !1927)
!1927 = !{null, !1864, !450}
!1928 = !DISubprogram(name: "setBits", linkageName: "_ZN13ap_fixed_baseILi17ELi17ELb1EL9ap_q_mode5EL9ap_o_mode3ELi0EE7setBitsEy", scope: !1853, file: !1854, line: 917, type: !1929, isLocal: false, isDefinition: false, scopeLine: 917, flags: DIFlagPrototyped, isOptimized: false)
!1929 = !DISubroutineType(types: !1930)
!1930 = !{!1931, !1864, !440}
!1931 = !DIDerivedType(tag: DW_TAG_reference_type, baseType: !1853, size: 64)
!1932 = !DISubprogram(name: "bitsToFixed", linkageName: "_ZN13ap_fixed_baseILi17ELi17ELb1EL9ap_q_mode5EL9ap_o_mode3ELi0EE11bitsToFixedEy", scope: !1853, file: !1854, line: 924, type: !1933, isLocal: false, isDefinition: false, scopeLine: 924, flags: DIFlagPrototyped | DIFlagStaticMember, isOptimized: false)
!1933 = !DISubroutineType(types: !1934)
!1934 = !{!1853, !440}
!1935 = !DISubprogram(name: "checkOverflowCsimFix", linkageName: "_ZNK13ap_fixed_baseILi17ELi17ELb1EL9ap_q_mode5EL9ap_o_mode3ELi0EE20checkOverflowCsimFixEib", scope: !1853, file: !1854, line: 935, type: !1936, isLocal: false, isDefinition: false, scopeLine: 935, flags: DIFlagPrototyped, isOptimized: false)
!1936 = !DISubroutineType(types: !1937)
!1937 = !{null, !1874, !38, !40}
!1938 = !DISubprogram(name: "to_ap_int_base", linkageName: "_ZNK13ap_fixed_baseILi17ELi17ELb1EL9ap_q_mode5EL9ap_o_mode3ELi0EE14to_ap_int_baseEb", scope: !1853, file: !1854, line: 981, type: !1939, isLocal: false, isDefinition: false, scopeLine: 981, flags: DIFlagPrototyped, isOptimized: false)
!1939 = !DISubroutineType(types: !1940)
!1940 = !{!498, !1874, !40}
!1941 = !DISubprogram(name: "to_char", linkageName: "_ZNK13ap_fixed_baseILi17ELi17ELb1EL9ap_q_mode5EL9ap_o_mode3ELi0EE7to_charEv", scope: !1853, file: !1854, line: 1020, type: !1942, isLocal: false, isDefinition: false, scopeLine: 1020, flags: DIFlagPrototyped, isOptimized: false)
!1942 = !DISubroutineType(types: !1943)
!1943 = !{!86, !1874}
!1944 = !DISubprogram(name: "to_int", linkageName: "_ZNK13ap_fixed_baseILi17ELi17ELb1EL9ap_q_mode5EL9ap_o_mode3ELi0EE6to_intEv", scope: !1853, file: !1854, line: 1022, type: !1872, isLocal: false, isDefinition: false, scopeLine: 1022, flags: DIFlagPrototyped, isOptimized: false)
!1945 = !DISubprogram(name: "to_uint", linkageName: "_ZNK13ap_fixed_baseILi17ELi17ELb1EL9ap_q_mode5EL9ap_o_mode3ELi0EE7to_uintEv", scope: !1853, file: !1854, line: 1024, type: !1946, isLocal: false, isDefinition: false, scopeLine: 1024, flags: DIFlagPrototyped, isOptimized: false)
!1946 = !DISubroutineType(types: !1947)
!1947 = !{!123, !1874}
!1948 = !DISubprogram(name: "to_int64", linkageName: "_ZNK13ap_fixed_baseILi17ELi17ELb1EL9ap_q_mode5EL9ap_o_mode3ELi0EE8to_int64Ev", scope: !1853, file: !1854, line: 1026, type: !1949, isLocal: false, isDefinition: false, scopeLine: 1026, flags: DIFlagPrototyped, isOptimized: false)
!1949 = !DISubroutineType(types: !1950)
!1950 = !{!435, !1874}
!1951 = !DISubprogram(name: "to_uint64", linkageName: "_ZNK13ap_fixed_baseILi17ELi17ELb1EL9ap_q_mode5EL9ap_o_mode3ELi0EE9to_uint64Ev", scope: !1853, file: !1854, line: 1028, type: !1952, isLocal: false, isDefinition: false, scopeLine: 1028, flags: DIFlagPrototyped, isOptimized: false)
!1952 = !DISubroutineType(types: !1953)
!1953 = !{!440, !1874}
!1954 = !DISubprogram(name: "to_ap_int", linkageName: "_ZNK13ap_fixed_baseILi17ELi17ELb1EL9ap_q_mode5EL9ap_o_mode3ELi0EE9to_ap_intEv", scope: !1853, file: !1854, line: 1030, type: !1955, isLocal: false, isDefinition: false, scopeLine: 1030, flags: DIFlagPrototyped, isOptimized: false)
!1955 = !DISubroutineType(types: !1956)
!1956 = !{!495, !1874}
!1957 = !DISubprogram(name: "to_double", linkageName: "_ZNK13ap_fixed_baseILi17ELi17ELb1EL9ap_q_mode5EL9ap_o_mode3ELi0EE9to_doubleEv", scope: !1853, file: !1854, line: 1034, type: !1958, isLocal: false, isDefinition: false, scopeLine: 1034, flags: DIFlagPrototyped, isOptimized: false)
!1958 = !DISubroutineType(types: !1959)
!1959 = !{!149, !1874}
!1960 = !DISubprogram(name: "to_float", linkageName: "_ZNK13ap_fixed_baseILi17ELi17ELb1EL9ap_q_mode5EL9ap_o_mode3ELi0EE8to_floatEv", scope: !1853, file: !1854, line: 1084, type: !1961, isLocal: false, isDefinition: false, scopeLine: 1084, flags: DIFlagPrototyped, isOptimized: false)
!1961 = !DISubroutineType(types: !1962)
!1962 = !{!153, !1874}
!1963 = !DISubprogram(name: "to_half", linkageName: "_ZNK13ap_fixed_baseILi17ELi17ELb1EL9ap_q_mode5EL9ap_o_mode3ELi0EE7to_halfEv", scope: !1853, file: !1854, line: 1131, type: !1964, isLocal: false, isDefinition: false, scopeLine: 1131, flags: DIFlagPrototyped, isOptimized: false)
!1964 = !DISubroutineType(types: !1965)
!1965 = !{!450, !1874}
!1966 = !DISubprogram(name: "operator long double", linkageName: "_ZNK13ap_fixed_baseILi17ELi17ELb1EL9ap_q_mode5EL9ap_o_mode3ELi0EEcveEv", scope: !1853, file: !1854, line: 1177, type: !1967, isLocal: false, isDefinition: false, scopeLine: 1177, flags: DIFlagPrototyped, isOptimized: false)
!1967 = !DISubroutineType(types: !1968)
!1968 = !{!1795, !1874}
!1969 = !DISubprogram(name: "operator double", linkageName: "_ZNK13ap_fixed_baseILi17ELi17ELb1EL9ap_q_mode5EL9ap_o_mode3ELi0EEcvdEv", scope: !1853, file: !1854, line: 1179, type: !1958, isLocal: false, isDefinition: false, scopeLine: 1179, flags: DIFlagPrototyped, isOptimized: false)
!1970 = !DISubprogram(name: "operator float", linkageName: "_ZNK13ap_fixed_baseILi17ELi17ELb1EL9ap_q_mode5EL9ap_o_mode3ELi0EEcvfEv", scope: !1853, file: !1854, line: 1181, type: !1961, isLocal: false, isDefinition: false, scopeLine: 1181, flags: DIFlagPrototyped, isOptimized: false)
!1971 = !DISubprogram(name: "operator __fp16", linkageName: "_ZNK13ap_fixed_baseILi17ELi17ELb1EL9ap_q_mode5EL9ap_o_mode3ELi0EEcvDhEv", scope: !1853, file: !1854, line: 1183, type: !1964, isLocal: false, isDefinition: false, scopeLine: 1183, flags: DIFlagPrototyped, isOptimized: false)
